(lp1
S'Hello, I am a data scientist at apple and I work on deep learning projects.'
p2
aS'I also maintain a blog in my free time with many of my old tutorials.'
p3
aS'My personal research interests include sequence to sequence processing tasks.'
p4
aS'This is a rather wide subfield and is growing ever wider.'
p5
aS'I eventually want to solve the ability to reason with logic so that we can build platforms that can start to make strategic decisions across a wide array of situations.'
p6
aS'I also enjoy playing tennis, cooking, weight lifting.'
p7
aS'My favorite shows include the Big Bang Theory, Modern Family, Shark Tank and Dragon Ball.'
p8
aS'I am originally from New Jersey but currently live in California while my parents live in Georgia.'
p9
aS'I have a little brother who is in middle school and it is somewhat unfortunate that I am not able to be by his side when he is high school.'
p10
aS'Which is arguably some tested times in a teenager\xe2\x80\x99s life.'
p11
aS'I hope this is enough sentences for a little bit a translational accuracy.'
p12
aS'Only time will tell and a decent model will help too.'
p13
aS'I like to eat peanut butter sandwiches, eggs and apple smoothies in the morning\nFor lunch I usually eat a very large salad or chicken and rice.'
p14
aS'For dinner I try to eat wild fish with vegetables.'
p15
aS'For late night, I usually eat ice cream and maybe an apple.'
p16
aS'On the weekends, I might cook pasta with salmon or eat outside with friends.'
p17
aS'I also do not take anything artificial like protein supplements and try to eat organic food.'
p18
aS'In fact I do not even own a microwave which can be inconvenient when I want to heat my organic meals.'
p19
aS'I spent quite a bit of time working with adversarial networks but now I am more focused on solving logical reasoning for artificial intelligence.'
p20
aS'We have got a long way to go but I think we can achieve really amazing feats within the next decade.'
p21
a.