(lp1
(lp2
cnumpy.core.multiarray
scalar
p3
(cnumpy
dtype
p4
(S'f4'
I0
I1
tRp5
(I3
S'<'
NNNI-1
I-1
I0
tbS'7\x89\x98>'
tRp6
ag3
(g5
S'\xecQ\xd3>'
tRp7
ag3
(g5
S'\xd5x\xd9>'
tRp8
ag3
(g5
S'\xf2\xd2\xdc>'
tRp9
ag3
(g5
S'?5\xdf>'
tRp10
ag3
(g5
S'\xd1"\xe0>'
tRp11
ag3
(g5
S'\x91\xed\xe0>'
tRp12
ag3
(g5
S'+\x87\xe1>'
tRp13
ag3
(g5
S'j\xbc\xe2>'
tRp14
ag3
(g5
S'\x85\xeb\xe3>'
tRp15
ag3
(g5
S'\xa8\xc6\xe4>'
tRp16
ag3
(g5
S'\x12\x83\xe5>'
tRp17
ag3
(g5
S'\xdfO\xe6>'
tRp18
ag3
(g5
S'\xecQ\xe7>'
tRp19
ag3
(g5
S'\x9e\xef\xe7>'
tRp20
ag3
(g5
S'\x81\x95\xe8>'
tRp21
ag3
(g5
S'\xaeG\xe9>'
tRp22
ag3
(g5
S'^\xba\xe9>'
tRp23
ag3
(g5
S'7\x89\xea>'
tRp24
ag3
(g5
S'\x1dZ\xeb>'
tRp25
ag3
(g5
S'1\x08\xec>'
tRp26
ag3
(g5
S'o\x12\xed>'
tRp27
ag3
(g5
S'`\xe5\xed>'
tRp28
ag3
(g5
S'\xcb\xa1\xee>'
tRp29
ag3
(g5
S'\x85\xeb\xee>'
tRp30
ag3
(g5
S'P\x8d\xef>'
tRp31
ag3
(g5
S'o\x12\xf0>'
tRp32
ag3
(g5
S'\xbe\x9f\xf0>'
tRp33
ag3
(g5
S'\x1b/\xf1>'
tRp34
ag3
(g5
S'\xe1z\xf1>'
tRp35
ag3
(g5
S"'1\xf2>"
tRp36
ag3
(g5
S'o\x12\xf3>'
tRp37
ag3
(g5
S'\xf4\xfd\xf2>'
tRp38
ag3
(g5
S'\xecQ\xf4>'
tRp39
ag3
(g5
S'\x9e\xef\xf4>'
tRp40
ag3
(g5
S'9\xb4\xf5>'
tRp41
ag3
(g5
S'\xa4p\xf6>'
tRp42
ag3
(g5
S'\x10X\xf7>'
tRp43
ag3
(g5
S'\xcf\xf7\xf7>'
tRp44
ag3
(g5
S'}?\xf9>'
tRp45
ag3
(g5
S'\x98n\xf9>'
tRp46
ag3
(g5
S'\x93\x18\xfa>'
tRp47
ag3
(g5
S'\xdb\xf9\xfa>'
tRp48
ag3
(g5
S'\x08\xac\xfb>'
tRp49
ag3
(g5
S'm\xe7\xfb>'
tRp50
ag3
(g5
S'\x1f\x85\xfc>'
tRp51
ag3
(g5
S'\xecQ\xfd>'
tRp52
ag3
(g5
S'\x96C\xfe>'
tRp53
ag3
(g5
S'\x83\xc0\xfe>'
tRp54
ag3
(g5
S'\xb2\x9d\xff>'
tRp55
ag3
(g5
S'/]\x00?'
tRp56
ag3
(g5
S'q\xbd\x00?'
tRp57
ag3
(g5
S'F6\x01?'
tRp58
ag3
(g5
S'\xb2\x9d\x01?'
tRp59
ag3
(g5
S'h\x11\x02?'
tRp60
ag3
(g5
S'\xbct\x02?'
tRp61
ag3
(g5
S'\xd5\xf8\x02?'
tRp62
ag3
(g5
S'\xbc\xf4\x02?'
tRp63
ag3
(g5
S'3\xb3\x03?'
tRp64
ag3
(g5
S'\x9eo\x04?'
tRp65
ag3
(g5
S'3\xb3\x04?'
tRp66
ag3
(g5
S'\x12\x83\x05?'
tRp67
ag3
(g5
S'%\x86\x05?'
tRp68
ag3
(g5
S'w>\x06?'
tRp69
ag3
(g5
S'\xf4\xfd\x06?'
tRp70
ag3
(g5
S'\\\x8f\x07?'
tRp71
ag3
(g5
S'\x1d\xda\x07?'
tRp72
ag3
(g5
S'\xb4H\x08?'
tRp73
ag3
(g5
S'\xfa\xfe\x08?'
tRp74
ag3
(g5
S'\xe7\xfb\t?'
tRp75
ag3
(g5
S'\xac\x9c\n?'
tRp76
ag3
(g5
S'\xf2\xd2\n?'
tRp77
ag3
(g5
S'\xcfw\x0b?'
tRp78
ag3
(g5
S'\x8fB\x0c?'
tRp79
ag3
(g5
S'1\x08\r?'
tRp80
ag3
(g5
S'\xbaI\r?'
tRp81
ag3
(g5
S'=\n\x0e?'
tRp82
ag3
(g5
S'-\xb2\x0e?'
tRp83
ag3
(g5
S'\xa4p\x0f?'
tRp84
ag3
(g5
S'\xfc)\x10?'
tRp85
ag3
(g5
S'\xec\xd1\x10?'
tRp86
ag3
(g5
S'9\xb4\x11?'
tRp87
ag3
(g5
S'sh\x12?'
tRp88
ag3
(g5
S'P\r\x13?'
tRp89
ag3
(g5
S'\xb8\x9e\x13?'
tRp90
ag3
(g5
S'\xa2\xc5\x14?'
tRp91
ag3
(g5
S'J\x8c\x15?'
tRp92
ag3
(g5
S'Ha\x16?'
tRp93
ag3
(g5
S'\x14.\x17?'
tRp94
ag3
(g5
S'\x08\xac\x17?'
tRp95
ag3
(g5
S'd\xbb\x18?'
tRp96
ag3
(g5
S'Nb\x19?'
tRp97
ag3
(g5
S"\xf0'\x1a?"
tRp98
ag3
(g5
S'\x06\x01\x1b?'
tRp99
ag3
(g5
S'\xae\xc7\x1b?'
tRp100
ag3
(g5
S'\xe3\xa5\x1c?'
tRp101
ag3
(g5
S'+\x87\x1d?'
tRp102
ag3
(g5
S'\x00\x80\x1e?'
tRp103
ag3
(g5
S'j<\x1f?'
tRp104
ag3
(g5
S'\xb0\xf2\x1f?'
tRp105
ag3
(g5
S'\x10\xd8 ?'
tRp106
ag3
(g5
S'w\xbe!?'
tRp107
ag3
(g5
S'{\x94"?'
tRp108
ag3
(g5
S'\xc3u#?'
tRp109
ag3
(g5
S'\xfa\xfe#?'
tRp110
ag3
(g5
S'\xee\xfc$?'
tRp111
ag3
(g5
S'X\xb9%?'
tRp112
ag3
(g5
S'\xd7\xa3&?'
tRp113
ag3
(g5
S"\xd9N'?"
tRp114
ag3
(g5
S'\xf2R(?'
tRp115
ag3
(g5
S'\x0c\x02)?'
tRp116
ag3
(g5
S'y\xe9)?'
tRp117
ag3
(g5
S'\xb2\x9d*?'
tRp118
ag3
(g5
S'\x89A+?'
tRp119
ag3
(g5
S'%\x06,?'
tRp120
ag3
(g5
S'mg,?'
tRp121
ag3
(g5
S'Tc-?'
tRp122
ag3
(g5
S'\x98\xee-?'
tRp123
ag3
(g5
S'u\x93.?'
tRp124
ag3
(g5
S'\x8fB/?'
tRp125
ag3
(g5
S'\xfe\xd4/?'
tRp126
ag3
(g5
S'{\x940?'
tRp127
ag3
(g5
S'F61?'
tRp128
ag3
(g5
S'Z\xe41?'
tRp129
ag3
(g5
S'\xc7\xcb2?'
tRp130
ag3
(g5
S'\xe5P3?'
tRp131
ag3
(g5
S'\x85\xeb3?'
tRp132
ag3
(g5
S'\x19\x844?'
tRp133
ag3
(g5
S'\xc5 5?'
tRp134
ag3
(g5
S'\xfe\xd45?'
tRp135
ag3
(g5
S'\x10X6?'
tRp136
ag3
(g5
S'\xe5\xd06?'
tRp137
ag3
(g5
S'\xfeT7?'
tRp138
ag3
(g5
S'\xd3\xcd7?'
tRp139
ag3
(g5
S'mg8?'
tRp140
ag3
(g5
S'1\x089?'
tRp141
ag3
(g5
S')\\9?'
tRp142
ag3
(g5
S'J\x0c:?'
tRp143
ag3
(g5
S'yi:?'
tRp144
ag3
(g5
S'q=;?'
tRp145
ag3
(g5
S'd\xbb;?'
tRp146
ag3
(g5
S'\xe5P<?'
tRp147
ag3
(g5
S'J\x0c=?'
tRp148
ag3
(g5
S'\xd3M=?'
tRp149
ag3
(g5
S'J\x0c>?'
tRp150
ag3
(g5
S'\x06\x81>?'
tRp151
ag3
(g5
S'\x8fB??'
tRp152
ag3
(g5
S'\xba\xc9??'
tRp153
ag3
(g5
S'L7@?'
tRp154
ag3
(g5
S"'\xb1@?"
tRp155
ag3
(g5
S'L7A?'
tRp156
ag3
(g5
S'`\xe5A?'
tRp157
ag3
(g5
S'\xbctB?'
tRp158
ag3
(g5
S'\x7f\xeaB?'
tRp159
ag3
(g5
S'94C?'
tRp160
ag3
(g5
S'\xfe\xd4C?'
tRp161
ag3
(g5
S'\\\x8fD?'
tRp162
ag3
(g5
S'\x91\xedD?'
tRp163
ag3
(g5
S'%\x86E?'
tRp164
ag3
(g5
S'\xe3\xa5E?'
tRp165
ag3
(g5
S"\xf0'F?"
tRp166
ag3
(g5
S'V\x8eF?'
tRp167
ag3
(g5
S'B\xe0F?'
tRp168
ag3
(g5
S'\xf8SG?'
tRp169
ag3
(g5
S'`\xe5G?'
tRp170
ag3
(g5
S'`\xe5G?'
tRp171
ag3
(g5
S'\xc3uH?'
tRp172
ag3
(g5
S'\xe5\xd0H?'
tRp173
ag3
(g5
S'\x85kI?'
tRp174
ag3
(g5
S'\xb8\x9eI?'
tRp175
ag3
(g5
S'\xdf\xcfI?'
tRp176
ag3
(g5
S'\x9a\x19J?'
tRp177
ag3
(g5
S'\x17YJ?'
tRp178
ag3
(g5
S's\xe8J?'
tRp179
ag3
(g5
S'\xfc)K?'
tRp180
ag3
(g5
S'\xa2EK?'
tRp181
ag3
(g5
S'\xb6sK?'
tRp182
ag3
(g5
S's\xe8K?'
tRp183
ag3
(g5
S'\xb2\x1dL?'
tRp184
ag3
(g5
S'R\xb8L?'
tRp185
ag3
(g5
S'\x19\x04M?'
tRp186
ag3
(g5
S'\x98nM?'
tRp187
ag3
(g5
S'\xa4pM?'
tRp188
ag3
(g5
S'^\xbaM?'
tRp189
ag3
(g5
S'P\rN?'
tRp190
ag3
(g5
S'J\x8cN?'
tRp191
ag3
(g5
S'\x93\x98N?'
tRp192
ag3
(g5
S'\xdf\xcfN?'
tRp193
ag3
(g5
S'HaO?'
tRp194
ag3
(g5
S'\x7fjO?'
tRp195
ag3
(g5
S'?\xb5O?'
tRp196
ag3
(g5
S'/\xddO?'
tRp197
ag3
(g5
S'\xf8SP?'
tRp198
ag3
(g5
S'yiP?'
tRp199
ag3
(g5
S'q\xbdP?'
tRp200
ag3
(g5
S'm\xe7P?'
tRp201
ag3
(g5
S'\x9cDQ?'
tRp202
ag3
(g5
S'\xf2RQ?'
tRp203
ag3
(g5
S'\x93\x98Q?'
tRp204
ag3
(g5
S'\xfc\xa9Q?'
tRp205
ag3
(g5
S'\xd5\xf8Q?'
tRp206
ag3
(g5
S'mgR?'
tRp207
ag3
(g5
S'1\x88R?'
tRp208
ag3
(g5
S'\x83\xc0R?'
tRp209
ag3
(g5
S'\xba\xc9R?'
tRp210
ag3
(g5
S'%\x06S?'
tRp211
ag3
(g5
S'}?S?'
tRp212
ag3
(g5
S'?5S?'
tRp213
ag3
(g5
S'\x08\xacS?'
tRp214
ag3
(g5
S'\xd9\xceS?'
tRp215
ag3
(g5
S'\x0e-T?'
tRp216
ag3
(g5
S'\x8fBT?'
tRp217
ag3
(g5
S'\x87\x96T?'
tRp218
ag3
(g5
S'\xa6\x9bT?'
tRp219
ag3
(g5
S'h\x11U?'
tRp220
ag3
(g5
S'\xc5 U?'
tRp221
ag3
(g5
S'\nWU?'
tRp222
ag3
(g5
S'\xf6\xa8U?'
tRp223
ag3
(g5
S'\xf8\xd3U?'
tRp224
ag3
(g5
S'\xfa\xfeU?'
tRp225
ag3
(g5
S'u\x13V?'
tRp226
ag3
(g5
S'\xf8SV?'
tRp227
ag3
(g5
S'yiV?'
tRp228
ag3
(g5
S'\xb8\x9eV?'
tRp229
ag3
(g5
S"'\xb1V?"
tRp230
ag3
(g5
S'\x98\xeeV?'
tRp231
ag3
(g5
S'1\x08W?'
tRp232
ag3
(g5
S'?5W?'
tRp233
ag3
(g5
S'\x04VW?'
tRp234
ag3
(g5
S'\xfeTW?'
tRp235
ag3
(g5
S'\xb6sW?'
tRp236
ag3
(g5
S'\x96\xc3W?'
tRp237
ag3
(g5
S'\x1d\xdaW?'
tRp238
ag3
(g5
S'\xc9\xf6W?'
tRp239
ag3
(g5
S"\xf0'X?"
tRp240
ag3
(g5
S'NbX?'
tRp241
ag3
(g5
S'\xdbyX?'
tRp242
ag3
(g5
S'P\x8dX?'
tRp243
ag3
(g5
S'\xac\x9cX?'
tRp244
ag3
(g5
S'\xec\xd1X?'
tRp245
ag3
(g5
S'\x10\xd8X?'
tRp246
ag3
(g5
S's\xe8X?'
tRp247
ag3
(g5
S'\xb8\x1eY?'
tRp248
ag3
(g5
S'\x7fjY?'
tRp249
ag3
(g5
S'\xc3uY?'
tRp250
ag3
(g5
S'b\x90Y?'
tRp251
ag3
(g5
S'\xc1\xcaY?'
tRp252
ag3
(g5
S'%\x86Y?'
tRp253
ag3
(g5
S';\xdfY?'
tRp254
ag3
(g5
S'\xf2\xd2Y?'
tRp255
ag3
(g5
S'\x87\x16Z?'
tRp256
ag3
(g5
S'\xc5 Z?'
tRp257
ag3
(g5
S'\xdd$Z?'
tRp258
ag3
(g5
S'\xf8SZ?'
tRp259
ag3
(g5
S'yiZ?'
tRp260
ag3
(g5
S'b\x90Z?'
tRp261
ag3
(g5
S'-\xb2Z?'
tRp262
ag3
(g5
S'\x1f\x05[?'
tRp263
ag3
(g5
S'\xbe\x1f[?'
tRp264
ag3
(g5
S'\xc7K[?'
tRp265
ag3
(g5
S'Tc[?'
tRp266
ag3
(g5
S'\xdby[?'
tRp267
ag3
(g5
S'%\x86[?'
tRp268
ag3
(g5
S'}\xbf[?'
tRp269
ag3
(g5
S'\x17\xd9[?'
tRp270
ag3
(g5
S'd\xbb[?'
tRp271
ag3
(g5
S'J\x0c\\?'
tRp272
ag3
(g5
S'\xb4H\\?'
tRp273
ag3
(g5
S'R8\\?'
tRp274
ag3
(g5
S'\xcdL\\?'
tRp275
ag3
(g5
S'Ha\\?'
tRp276
ag3
(g5
S'\x12\x83\\?'
tRp277
ag3
(g5
S'h\x91\\?'
tRp278
ag3
(g5
S'\xd3\xcd\\?'
tRp279
ag3
(g5
S'B\xe0\\?'
tRp280
ag3
(g5
S'B\xe0\\?'
tRp281
ag3
(g5
S'\x93\x18]?'
tRp282
ag3
(g5
S'\xa0\x1a]?'
tRp283
ag3
(g5
S'!0]?'
tRp284
ag3
(g5
S'\xb2\x9d]?'
tRp285
ag3
(g5
S'+\x87]?'
tRp286
ag3
(g5
S'\xa8\xc6]?'
tRp287
ag3
(g5
S'\x87\x96]?'
tRp288
ag3
(g5
S'\xe3\xa5]?'
tRp289
ag3
(g5
S'\x04\xd6]?'
tRp290
ag3
(g5
S'\x9c\xc4]?'
tRp291
ag3
(g5
S'\x98\xee]?'
tRp292
ag3
(g5
S'\xe1\xfa]?'
tRp293
ag3
(g5
S'L7^?'
tRp294
ag3
(g5
S'=\n^?'
tRp295
ag3
(g5
S'q=^?'
tRp296
ag3
(g5
S'\xa2E^?'
tRp297
ag3
(g5
S'\x9cD^?'
tRp298
ag3
(g5
S'\xc1J^?'
tRp299
ag3
(g5
S'\x85k^?'
tRp300
ag3
(g5
S'\xb8\x9e^?'
tRp301
ag3
(g5
S'D\x8b^?'
tRp302
ag3
(g5
S'\xa0\x9a^?'
tRp303
ag3
(g5
S'\x8f\xc2^?'
tRp304
ag3
(g5
S'\xdd\xa4^?'
tRp305
ag3
(g5
S'\x85\xeb^?'
tRp306
ag3
(g5
S'\x0c\x02_?'
tRp307
ag3
(g5
S'T\xe3^?'
tRp308
ag3
(g5
S'\x02+_?'
tRp309
ag3
(g5
S'1\x08_?'
tRp310
ag3
(g5
S'\xb8\x1e_?'
tRp311
ag3
(g5
S"'1_?"
tRp312
ag3
(g5
S'\x02+_?'
tRp313
ag3
(g5
S'\xcfw_?'
tRp314
ag3
(g5
S'\x81\x95_?'
tRp315
ag3
(g5
S'\xc5\xa0_?'
tRp316
ag3
(g5
S'\x91\xed_?'
tRp317
ag3
(g5
S'\xae\xc7_?'
tRp318
ag3
(g5
S'\xa0\x1a`?'
tRp319
ag3
(g5
S'H\xe1_?'
tRp320
ag3
(g5
S'u\x13`?'
tRp321
ag3
(g5
S'd;`?'
tRp322
ag3
(g5
S'q=`?'
tRp323
ag3
(g5
S'\x91m`?'
tRp324
ag3
(g5
S'Nb`?'
tRp325
ag3
(g5
S'\x12\x83`?'
tRp326
ag3
(g5
S'\x19\x84`?'
tRp327
ag3
(g5
S'\xd1\xa2`?'
tRp328
ag3
(g5
S'\x0e\xad`?'
tRp329
ag3
(g5
S'T\xe3`?'
tRp330
ag3
(g5
S'\xaa\xf1`?'
tRp331
ag3
(g5
S'\xe7\xfb`?'
tRp332
ag3
(g5
S'\xbc\xf4`?'
tRp333
ag3
(g5
S'\x9a\x19a?'
tRp334
ag3
(g5
S'\xcb!a?'
tRp335
ag3
(g5
S'F6a?'
tRp336
ag3
(g5
S'\xdfOa?'
tRp337
ag3
(g5
S'\xdfOa?'
tRp338
ag3
(g5
S'\x87\x96a?'
tRp339
ag3
(g5
S'sha?'
tRp340
ag3
(g5
S'\x14\xaea?'
tRp341
ag3
(g5
S'\xb0ra?'
tRp342
ag3
(g5
S'\xa6\x9ba?'
tRp343
ag3
(g5
S'3\xb3a?'
tRp344
ag3
(g5
S'\xc5\xa0a?'
tRp345
ag3
(g5
S'^\xbaa?'
tRp346
ag3
(g5
S'-\xb2a?'
tRp347
ag3
(g5
S'd\xbba?'
tRp348
ag3
(g5
S'R\xb8a?'
tRp349
ag3
(g5
S'3\xb3a?'
tRp350
ag3
(g5
S'\x08,b?'
tRp351
ag3
(g5
S'\xa6\x1bb?'
tRp352
ag3
(g5
S'\\\x0fb?'
tRp353
ag3
(g5
S'shb?'
tRp354
ag3
(g5
S'94b?'
tRp355
ag3
(g5
S'\x9cDb?'
tRp356
ag3
(g5
S';_b?'
tRp357
ag3
(g5
S'/]b?'
tRp358
ag3
(g5
S'^:b?'
tRp359
ag3
(g5
S'\xc7Kb?'
tRp360
ag3
(g5
S'\x91mb?'
tRp361
ag3
(g5
S'\x12\x83b?'
tRp362
ag3
(g5
S'\xfa~b?'
tRp363
ag3
(g5
S'\xc9vb?'
tRp364
ag3
(g5
S'\xc5\xa0b?'
tRp365
ag3
(g5
S'\xae\xc7b?'
tRp366
ag3
(g5
S'\xa0\x9ab?'
tRp367
ag3
(g5
S'\xfe\xd4b?'
tRp368
ag3
(g5
S'N\xe2b?'
tRp369
ag3
(g5
S'\xd3\xcdb?'
tRp370
ag3
(g5
S'\x9c\xc4b?'
tRp371
ag3
(g5
S'\xd5\xf8b?'
tRp372
ag3
(g5
S'\xaa\xf1b?'
tRp373
ag3
(g5
S'\x19\x04c?'
tRp374
ag3
(g5
S'D\x0bc?'
tRp375
ag3
(g5
S'\xb2\x1dc?'
tRp376
ag3
(g5
S'q=c?'
tRp377
ag3
(g5
S'\xc7Kc?'
tRp378
ag3
(g5
S'Hac?'
tRp379
ag3
(g5
S'\xc3uc?'
tRp380
ag3
(g5
S'\x1b/c?'
tRp381
ag3
(g5
S'd;c?'
tRp382
ag3
(g5
S'\xd9Nc?'
tRp383
ag3
(g5
S'\xd9Nc?'
tRp384
ag3
(g5
S'\x96Cc?'
tRp385
ag3
(g5
S'D\x8bc?'
tRp386
ag3
(g5
S'\xe5Pc?'
tRp387
ag3
(g5
S'V\x8ec?'
tRp388
ag3
(g5
S'\xf0\xa7c?'
tRp389
ag3
(g5
S'3\xb3c?'
tRp390
ag3
(g5
S'q\xbdc?'
tRp391
ag3
(g5
S'd\xbbc?'
tRp392
ag3
(g5
S'w\xbec?'
tRp393
ag3
(g5
S'N\xe2c?'
tRp394
ag3
(g5
S'\xe5\xd0c?'
tRp395
ag3
(g5
S'\x9e\xefc?'
tRp396
ag3
(g5
S'\xe7\xfbc?'
tRp397
ag3
(g5
S'\x7f\xeac?'
tRp398
ag3
(g5
S'\xbc\xf4c?'
tRp399
ag3
(g5
S'\xd1"d?'
tRp400
ag3
(g5
S'\xe3%d?'
tRp401
ag3
(g5
S'\xa0\x1ad?'
tRp402
ag3
(g5
S'd;d?'
tRp403
ag3
(g5
S'?5d?'
tRp404
ag3
(g5
S'\x06\x81d?'
tRp405
ag3
(g5
S'\x10Xd?'
tRp406
ag3
(g5
S'\x9eod?'
tRp407
ag3
(g5
S'\x10Xd?'
tRp408
ag3
(g5
S'/]d?'
tRp409
ag3
(g5
S'\x1dZd?'
tRp410
ag3
(g5
S'\x14\xaed?'
tRp411
ag3
(g5
S'\xa4pd?'
tRp412
ag3
(g5
S'\x87\x96d?'
tRp413
ag3
(g5
S'\xb2\x9dd?'
tRp414
ag3
(g5
S'\x14\xaed?'
tRp415
ag3
(g5
S'\xdbyd?'
tRp416
ag3
(g5
S'\x14\xaed?'
tRp417
ag3
(g5
S'\\\x8fd?'
tRp418
ag3
(g5
S'\xd9\xced?'
tRp419
ag3
(g5
S'\xc1\xcad?'
tRp420
ag3
(g5
S'\xba\xc9d?'
tRp421
ag3
(g5
S'm\xe7d?'
tRp422
ag3
(g5
S'\xcf\xf7d?'
tRp423
ag3
(g5
S'7\te?'
tRp424
ag3
(g5
S'D\x0be?'
tRp425
ag3
(g5
S'{\x14e?'
tRp426
ag3
(g5
S'?5e?'
tRp427
ag3
(g5
S"\xf0'e?"
tRp428
ag3
(g5
S'\xaeGe?'
tRp429
ag3
(g5
S'o\x12e?'
tRp430
ag3
(g5
S'X9e?'
tRp431
ag3
(g5
S'\x17Ye?'
tRp432
ag3
(g5
S'F6e?'
tRp433
ag3
(g5
S'mge?'
tRp434
ag3
(g5
S'#[e?'
tRp435
ag3
(g5
S'\\\x8fe?'
tRp436
ag3
(g5
S'\x0c\x82e?'
tRp437
ag3
(g5
S'\xcb\xa1e?'
tRp438
ag3
(g5
S'\x1f\x85e?'
tRp439
ag3
(g5
S'D\x8be?'
tRp440
ag3
(g5
S'\xcb\xa1e?'
tRp441
ag3
(g5
S'\x17\xd9e?'
tRp442
ag3
(g5
S'R\xb8e?'
tRp443
ag3
(g5
S'\xc1\xcae?'
tRp444
ag3
(g5
S')\xdce?'
tRp445
ag3
(g5
S'\xdf\xcfe?'
tRp446
ag3
(g5
S'\xbc\xf4e?'
tRp447
ag3
(g5
S'\x98\xeee?'
tRp448
ag3
(g5
S'\x0e-f?'
tRp449
ag3
(g5
S'\x87\x16f?'
tRp450
ag3
(g5
S'1\x08f?'
tRp451
ag3
(g5
S'u\x13f?'
tRp452
ag3
(g5
S'\xb8\x1ef?'
tRp453
ag3
(g5
S'P\rf?'
tRp454
ag3
(g5
S'\xe9&f?'
tRp455
ag3
(g5
S'\x8fBf?'
tRp456
ag3
(g5
S'\xc7Kf?'
tRp457
ag3
(g5
S'\xe5Pf?'
tRp458
ag3
(g5
S'\xb0rf?'
tRp459
ag3
(g5
S'\xfa~f?'
tRp460
ag3
(g5
S'\xee|f?'
tRp461
ag3
(g5
S'\xb2\x9df?'
tRp462
ag3
(g5
S'\xc3uf?'
tRp463
ag3
(g5
S'{\x94f?'
tRp464
ag3
(g5
S'}\xbff?'
tRp465
ag3
(g5
S'\xb4\xc8f?'
tRp466
ag3
(g5
S'/\xddf?'
tRp467
ag3
(g5
S'\xaa\xf1f?'
tRp468
ag3
(g5
S'm\xe7f?'
tRp469
ag3
(g5
S'y\xe9f?'
tRp470
ag3
(g5
S'{\x14g?'
tRp471
ag3
(g5
S'\xfa\xfef?'
tRp472
ag3
(g5
S'\xdd$g?'
tRp473
ag3
(g5
S'\xe7\xfbf?'
tRp474
ag3
(g5
S'\x1b/g?'
tRp475
ag3
(g5
S'D\x0bg?'
tRp476
ag3
(g5
S"'1g?"
tRp477
ag3
(g5
S"'1g?"
tRp478
ag3
(g5
S')\\g?'
tRp479
ag3
(g5
S'P\x8dg?'
tRp480
ag3
(g5
S'\xdd\xa4g?'
tRp481
ag3
(g5
S'\xe7{g?'
tRp482
ag3
(g5
S'\xf0\xa7g?'
tRp483
ag3
(g5
S';\xdfg?'
tRp484
ag3
(g5
S'\n\xd7g?'
tRp485
ag3
(g5
S'\x9e\xefg?'
tRp486
ag3
(g5
S'`\xe5g?'
tRp487
ag3
(g5
S'\xfa\xfeg?'
tRp488
ag3
(g5
S'\x91\xedg?'
tRp489
ag3
(g5
S'\xb6\xf3g?'
tRp490
ag3
(g5
S'B\xe0g?'
tRp491
ag3
(g5
S'\x8d\x17h?'
tRp492
ag3
(g5
S'+\x07h?'
tRp493
ag3
(g5
S'b\x10h?'
tRp494
ag3
(g5
S'94h?'
tRp495
ag3
(g5
S'\x14.h?'
tRp496
ag3
(g5
S'\xdd$h?'
tRp497
ag3
(g5
S'\xf6(h?'
tRp498
ag3
(g5
S'\nWh?'
tRp499
ag3
(g5
S'33h?'
tRp500
ag3
(g5
S'\xfc)h?'
tRp501
ag3
(g5
S'mgh?'
tRp502
ag3
(g5
S'\xaeGh?'
tRp503
ag3
(g5
S'\x12\x83h?'
tRp504
ag3
(g5
S'/]h?'
tRp505
ag3
(g5
S'\xfeTh?'
tRp506
ag3
(g5
S'\nWh?'
tRp507
ag3
(g5
S'P\x8dh?'
tRp508
ag3
(g5
S'\x00\x80h?'
tRp509
ag3
(g5
S'\xfeTh?'
tRp510
ag3
(g5
S'\x98nh?'
tRp511
ag3
(g5
S'\x9eoh?'
tRp512
ag3
(g5
S'\x93\x98h?'
tRp513
ag3
(g5
S'\xe9\xa6h?'
tRp514
ag3
(g5
S'\xa0\x9ah?'
tRp515
ag3
(g5
S'D\x8bh?'
tRp516
ag3
(g5
S"'\xb1h?"
tRp517
ag3
(g5
S'\x83\xc0h?'
tRp518
ag3
(g5
S'q\xbdh?'
tRp519
ag3
(g5
S'H\xe1h?'
tRp520
ag3
(g5
S'5\xdeh?'
tRp521
ag3
(g5
S'R\xb8h?'
tRp522
ag3
(g5
S')\xdch?'
tRp523
ag3
(g5
S'\xbc\xf4h?'
tRp524
ag3
(g5
S'+\x07i?'
tRp525
ag3
(g5
S'\xee\xfch?'
tRp526
ag3
(g5
S'\x81\x15i?'
tRp527
ag3
(g5
S'\\\x0fi?'
tRp528
ag3
(g5
S'D\x0bi?'
tRp529
ag3
(g5
S'=\ni?'
tRp530
ag3
(g5
S'?5i?'
tRp531
ag3
(g5
S'\x04Vi?'
tRp532
ag3
(g5
S'33i?'
tRp533
ag3
(g5
S'R8i?'
tRp534
ag3
(g5
S'\xd3Mi?'
tRp535
ag3
(g5
S'\xdd$i?'
tRp536
ag3
(g5
S'^:i?'
tRp537
ag3
(g5
S'\xc1Ji?'
tRp538
ag3
(g5
S'\xb4Hi?'
tRp539
ag3
(g5
S'B`i?'
tRp540
ag3
(g5
S'\xa4pi?'
tRp541
ag3
(g5
S'\x7fji?'
tRp542
ag3
(g5
S'\x00\x80i?'
tRp543
ag3
(g5
S'\x1f\x85i?'
tRp544
ag3
(g5
S'+\x87i?'
tRp545
ag3
(g5
S'\x06\x81i?'
tRp546
ag3
(g5
S'-\xb2i?'
tRp547
ag3
(g5
S'R\xb8i?'
tRp548
ag3
(g5
S'\xc5\xa0i?'
tRp549
ag3
(g5
S'\xb4\xc8i?'
tRp550
ag3
(g5
S'-\xb2i?'
tRp551
ag3
(g5
S'\x1d\xdai?'
tRp552
ag3
(g5
S'\xb6\xf3i?'
tRp553
ag3
(g5
S'T\xe3i?'
tRp554
ag3
(g5
S'\x8f\xc2i?'
tRp555
ag3
(g5
S'\xc1\xcai?'
tRp556
ag3
(g5
S'\x8b\xeci?'
tRp557
ag3
(g5
S'\xb0\xf2i?'
tRp558
ag3
(g5
S'D\x0bj?'
tRp559
ag3
(g5
S'\xa0\x1aj?'
tRp560
ag3
(g5
S'\xf4\xfdi?'
tRp561
ag3
(g5
S'\xb0\xf2i?'
tRp562
ag3
(g5
S'\x1f\x05j?'
tRp563
ag3
(g5
S'h\x11j?'
tRp564
ag3
(g5
S'\x08,j?'
tRp565
ag3
(g5
S'\xf6(j?'
tRp566
ag3
(g5
S'\xbe\x1fj?'
tRp567
ag3
(g5
S'\xb8\x1ej?'
tRp568
ag3
(g5
S'\xa6\x1bj?'
tRp569
ag3
(g5
S"\xf0'j?"
tRp570
ag3
(g5
S'R8j?'
tRp571
ag3
(g5
S'{\x14j?'
tRp572
ag3
(g5
S'F6j?'
tRp573
ag3
(g5
S'D\x8bj?'
tRp574
ag3
(g5
S'\xaaqj?'
tRp575
ag3
(g5
S'\x91mj?'
tRp576
ag3
(g5
S'\x19\x84j?'
tRp577
ag3
(g5
S'\xac\x9cj?'
tRp578
ag3
(g5
S'\xbctj?'
tRp579
ag3
(g5
S'7\x89j?'
tRp580
ag3
(g5
S'\xd7\xa3j?'
tRp581
ag3
(g5
S'\xac\x9cj?'
tRp582
ag3
(g5
S'\xe9\xa6j?'
tRp583
ag3
(g5
S'q\xbdj?'
tRp584
ag3
(g5
S'\xd3\xcdj?'
tRp585
ag3
(g5
S'\xe5\xd0j?'
tRp586
ag3
(g5
S'}\xbfj?'
tRp587
ag3
(g5
S'\x8f\xc2j?'
tRp588
ag3
(g5
S'\x9e\xefj?'
tRp589
ag3
(g5
S'H\xe1j?'
tRp590
ag3
(g5
S'\xaa\xf1j?'
tRp591
ag3
(g5
S'\xd7#k?'
tRp592
ag3
(g5
S'\xe3%k?'
tRp593
ag3
(g5
S'\xac\x1ck?'
tRp594
ag3
(g5
S'\xbe\x1fk?'
tRp595
ag3
(g5
S'\x00\x00k?'
tRp596
ag3
(g5
S'\xfa\xfej?'
tRp597
ag3
(g5
S'\x87\x16k?'
tRp598
ag3
(g5
S'\x08,k?'
tRp599
ag3
(g5
S'd;k?'
tRp600
ag3
(g5
S'\xfc)k?'
tRp601
ag3
(g5
S'\xfc)k?'
tRp602
ag3
(g5
S'\xe3%k?'
tRp603
ag3
(g5
S'\xc1Jk?'
tRp604
ag3
(g5
S'-2k?'
tRp605
ag3
(g5
S'\x04Vk?'
tRp606
ag3
(g5
S'L7k?'
tRp607
ag3
(g5
S'\xbaIk?'
tRp608
ag3
(g5
S'\xb4Hk?'
tRp609
ag3
(g5
S'`ek?'
tRp610
ag3
(g5
S'\xc7Kk?'
tRp611
ag3
(g5
S'\xcdLk?'
tRp612
ag3
(g5
S'\x0c\x82k?'
tRp613
ag3
(g5
S'B`k?'
tRp614
ag3
(g5
S'\x98nk?'
tRp615
ag3
(g5
S'\x9eok?'
tRp616
ag3
(g5
S'\xfa~k?'
tRp617
ag3
(g5
S'\xc3uk?'
tRp618
ag3
(g5
S'\xb6sk?'
tRp619
ag3
(g5
S'V\x8ek?'
tRp620
ag3
(g5
S'\x8d\x97k?'
tRp621
ag3
(g5
S'%\x86k?'
tRp622
ag3
(g5
S'\x87\x96k?'
tRp623
ag3
(g5
S'\xb0rk?'
tRp624
ag3
(g5
S'\x93\x98k?'
tRp625
ag3
(g5
S'\x06\x81k?'
tRp626
ag3
(g5
S'\xdf\xcfk?'
tRp627
ag3
(g5
S'u\x93k?'
tRp628
ag3
(g5
S'F\xb6k?'
tRp629
ag3
(g5
S'9\xb4k?'
tRp630
ag3
(g5
S'\x83\xc0k?'
tRp631
ag3
(g5
S'\xf6\xa8k?'
tRp632
ag3
(g5
S'\xf2\xd2k?'
tRp633
ag3
(g5
S'N\xe2k?'
tRp634
ag3
(g5
S'\xb4\xc8k?'
tRp635
ag3
(g5
S'B\xe0k?'
tRp636
ag3
(g5
S'\x17\xd9k?'
tRp637
ag3
(g5
S'\xec\xd1k?'
tRp638
ag3
(g5
S'\xb6\xf3k?'
tRp639
ag3
(g5
S'u\x13l?'
tRp640
ag3
(g5
S'\n\xd7k?'
tRp641
ag3
(g5
S'\x19\x04l?'
tRp642
ag3
(g5
S'\x06\x01l?'
tRp643
ag3
(g5
S'+\x07l?'
tRp644
ag3
(g5
S'f\xe6k?'
tRp645
ag3
(g5
S'{\x14l?'
tRp646
ag3
(g5
S'\xc5 l?'
tRp647
ag3
(g5
S'^:l?'
tRp648
ag3
(g5
S'\xac\x1cl?'
tRp649
ag3
(g5
S'\x93\x18l?'
tRp650
ag3
(g5
S'\xd1"l?'
tRp651
ag3
(g5
S'!0l?'
tRp652
ag3
(g5
S'\x1b/l?'
tRp653
ag3
(g5
S'\xcb!l?'
tRp654
ag3
(g5
S';_l?'
tRp655
ag3
(g5
S'\xe5Pl?'
tRp656
ag3
(g5
S'\xd1"l?'
tRp657
ag3
(g5
S'L7l?'
tRp658
ag3
(g5
S'\x96Cl?'
tRp659
ag3
(g5
S'shl?'
tRp660
ag3
(g5
S'\xe5Pl?'
tRp661
ag3
(g5
S'\x89Al?'
tRp662
ag3
(g5
S'B`l?'
tRp663
ag3
(g5
S'/]l?'
tRp664
ag3
(g5
S'\xdfOl?'
tRp665
ag3
(g5
S'\xa8Fl?'
tRp666
ag3
(g5
S'Tcl?'
tRp667
ag3
(g5
S'\xe1zl?'
tRp668
ag3
(g5
S'\xe1zl?'
tRp669
ag3
(g5
S'\xcb\xa1l?'
tRp670
ag3
(g5
S'V\x8el?'
tRp671
ag3
(g5
S'\x9a\x99l?'
tRp672
ag3
(g5
S'\x0c\x82l?'
tRp673
ag3
(g5
S'\x81\x95l?'
tRp674
ag3
(g5
S'?\xb5l?'
tRp675
ag3
(g5
S'\xd1\xa2l?'
tRp676
ag3
(g5
S'\xfc\xa9l?'
tRp677
ag3
(g5
S'\xdd\xa4l?'
tRp678
ag3
(g5
S'\xb4\xc8l?'
tRp679
ag3
(g5
S'q\xbdl?'
tRp680
ag3
(g5
S'F\xb6l?'
tRp681
ag3
(g5
S'w\xbel?'
tRp682
ag3
(g5
S'\xa8\xc6l?'
tRp683
ag3
(g5
S'^\xbal?'
tRp684
ag3
(g5
S'\x8f\xc2l?'
tRp685
ag3
(g5
S'\x17\xd9l?'
tRp686
ag3
(g5
S'\xc7\xcbl?'
tRp687
ag3
(g5
S'L\xb7l?'
tRp688
ag3
(g5
S'\xd3\xcdl?'
tRp689
ag3
(g5
S'Z\xe4l?'
tRp690
ag3
(g5
S'f\xe6l?'
tRp691
ag3
(g5
S'\x1f\x05m?'
tRp692
ag3
(g5
S'\xba\xc9l?'
tRp693
ag3
(g5
S'\x85\xebl?'
tRp694
ag3
(g5
S'{\x14m?'
tRp695
ag3
(g5
S'\x0c\x02m?'
tRp696
ag3
(g5
S'\x04\xd6l?'
tRp697
ag3
(g5
S'\x91\xedl?'
tRp698
ag3
(g5
S'\x8b\xecl?'
tRp699
ag3
(g5
S'\x02+m?'
tRp700
ag3
(g5
S'\xb2\x1dm?'
tRp701
ag3
(g5
S'b\x10m?'
tRp702
ag3
(g5
S'\xdd$m?'
tRp703
ag3
(g5
S'o\x12m?'
tRp704
ag3
(g5
S'\xc1Jm?'
tRp705
ag3
(g5
S'\x1dZm?'
tRp706
ag3
(g5
S'Nbm?'
tRp707
ag3
(g5
S'\xd1"m?'
tRp708
ag3
(g5
S'Ham?'
tRp709
ag3
(g5
S'q=m?'
tRp710
ag3
(g5
S'\xf6(m?'
tRp711
ag3
(g5
S'\xf2Rm?'
tRp712
ag3
(g5
S'\xd3Mm?'
tRp713
ag3
(g5
S'\nWm?'
tRp714
ag3
(g5
S'Nbm?'
tRp715
ag3
(g5
S'\x9cDm?'
tRp716
ag3
(g5
S'5^m?'
tRp717
ag3
(g5
S'\x10Xm?'
tRp718
ag3
(g5
S'\xdfOm?'
tRp719
ag3
(g5
S'ffm?'
tRp720
ag3
(g5
S'\x8fBm?'
tRp721
ag3
(g5
S'\xfeTm?'
tRp722
ag3
(g5
S'\x85km?'
tRp723
ag3
(g5
S'\x85km?'
tRp724
ag3
(g5
S'\xac\x9cm?'
tRp725
ag3
(g5
S'\xac\x9cm?'
tRp726
ag3
(g5
S'P\x8dm?'
tRp727
ag3
(g5
S'\x89\xc1m?'
tRp728
ag3
(g5
S'1\x88m?'
tRp729
ag3
(g5
S'\xbe\x9fm?'
tRp730
ag3
(g5
S'J\x8cm?'
tRp731
ag3
(g5
S'\xf6\xa8m?'
tRp732
ag3
(g5
S'd\xbbm?'
tRp733
ag3
(g5
S"'\xb1m?"
tRp734
ag3
(g5
S'\xdf\xcfm?'
tRp735
ag3
(g5
S'\xba\xc9m?'
tRp736
ag3
(g5
S'w\xbem?'
tRp737
ag3
(g5
S'\xae\xc7m?'
tRp738
ag3
(g5
S'\xfe\xd4m?'
tRp739
ag3
(g5
S'?\xb5m?'
tRp740
ag3
(g5
S'\x98\xeem?'
tRp741
ag3
(g5
S'\x1d\xdam?'
tRp742
ag3
(g5
S'\xe7\xfbm?'
tRp743
ag3
(g5
S'\xa4\xf0m?'
tRp744
ag3
(g5
S'\x85\xebm?'
tRp745
ag3
(g5
S'\xee\xfcm?'
tRp746
ag3
(g5
S'\x98\xeem?'
tRp747
ag3
(g5
S'D\x0bn?'
tRp748
ag3
(g5
S'\xb0\xf2m?'
tRp749
ag3
(g5
S'\xe1\xfam?'
tRp750
ag3
(g5
S'\xcf\xf7m?'
tRp751
ag3
(g5
S'\xe3%n?'
tRp752
ag3
(g5
S'D\x0bn?'
tRp753
ag3
(g5
S'\xdd$n?'
tRp754
ag3
(g5
S'\xdd$n?'
tRp755
ag3
(g5
S'\xd1"n?'
tRp756
ag3
(g5
S'b\x10n?'
tRp757
ag3
(g5
S'+\x07n?'
tRp758
ag3
(g5
S'\xa0\x1an?'
tRp759
ag3
(g5
S'\xfc)n?'
tRp760
ag3
(g5
S'\xa6\x1bn?'
tRp761
ag3
(g5
S'\xb4Hn?'
tRp762
ag3
(g5
S'\xa4pn?'
tRp763
ag3
(g5
S'\nWn?'
tRp764
ag3
(g5
S'\x85kn?'
tRp765
ag3
(g5
S'F6n?'
tRp766
ag3
(g5
S'\xf2Rn?'
tRp767
ag3
(g5
S'\xc9vn?'
tRp768
ag3
(g5
S'P\x8dn?'
tRp769
ag3
(g5
S'\xc9vn?'
tRp770
ag3
(g5
S'/]n?'
tRp771
ag3
(g5
S'\x9a\x99n?'
tRp772
ag3
(g5
S'\x1dZn?'
tRp773
ag3
(g5
S'\x12\x83n?'
tRp774
ag3
(g5
S'\xfc\xa9n?'
tRp775
ag3
(g5
S'\x1f\x85n?'
tRp776
ag3
(g5
S'\xbctn?'
tRp777
ag3
(g5
S'\x19\x84n?'
tRp778
ag3
(g5
S'\xaaqn?'
tRp779
ag3
(g5
S'\x06\x81n?'
tRp780
ag3
(g5
S'\x0c\x82n?'
tRp781
ag3
(g5
S'Nbn?'
tRp782
ag3
(g5
S'u\x93n?'
tRp783
ag3
(g5
S'\x12\x83n?'
tRp784
ag3
(g5
S'\xf4}n?'
tRp785
ag3
(g5
S'\x06\x81n?'
tRp786
ag3
(g5
S'\x93\x98n?'
tRp787
ag3
(g5
S'shn?'
tRp788
ag3
(g5
S'\xb0rn?'
tRp789
ag3
(g5
S'yin?'
tRp790
ag3
(g5
S'\x0c\x82n?'
tRp791
ag3
(g5
S'\xc5\xa0n?'
tRp792
ag3
(g5
S'=\x8an?'
tRp793
ag3
(g5
S'\x93\x98n?'
tRp794
ag3
(g5
S'=\x8an?'
tRp795
ag3
(g5
S'\xba\xc9n?'
tRp796
ag3
(g5
S'\xf6\xa8n?'
tRp797
ag3
(g5
S'\x08\xacn?'
tRp798
ag3
(g5
S'L\xb7n?'
tRp799
ag3
(g5
S'-\xb2n?'
tRp800
ag3
(g5
S'q\xbdn?'
tRp801
ag3
(g5
S'\xa2\xc5n?'
tRp802
ag3
(g5
S'\xc9\xf6n?'
tRp803
ag3
(g5
S'H\xe1n?'
tRp804
ag3
(g5
S'\x7f\xean?'
tRp805
ag3
(g5
S')\xdcn?'
tRp806
ag3
(g5
S'\x17\xd9n?'
tRp807
ag3
(g5
S'\xfa\xfen?'
tRp808
ag3
(g5
S'\x8b\xecn?'
tRp809
ag3
(g5
S'\xee\xfcn?'
tRp810
ag3
(g5
S'\x04\xd6n?'
tRp811
ag3
(g5
S'\xa6\x1bo?'
tRp812
ag3
(g5
S'\x8b\xecn?'
tRp813
ag3
(g5
S'\xb8\x1eo?'
tRp814
ag3
(g5
S'1\x08o?'
tRp815
ag3
(g5
S'{\x14o?'
tRp816
ag3
(g5
S'\x8d\x17o?'
tRp817
ag3
(g5
S'mgo?'
tRp818
ag3
(g5
S'\x89Ao?'
tRp819
ag3
(g5
S'\xa8Fo?'
tRp820
ag3
(g5
S'j<o?'
tRp821
ag3
(g5
S'\xb4Ho?'
tRp822
ag3
(g5
S'\xaeGo?'
tRp823
ag3
(g5
S'\x89Ao?'
tRp824
ag3
(g5
S'\xdbyo?'
tRp825
ag3
(g5
S'\xd3Mo?'
tRp826
ag3
(g5
S'\x08,o?'
tRp827
ag3
(g5
S'mgo?'
tRp828
ag3
(g5
S'\xc9vo?'
tRp829
ag3
(g5
S'\x96Co?'
tRp830
ag3
(g5
S'/]o?'
tRp831
ag3
(g5
S'\xf4}o?'
tRp832
ag3
(g5
S'5^o?'
tRp833
ag3
(g5
S'#[o?'
tRp834
ag3
(g5
S'\xe1zo?'
tRp835
ag3
(g5
S'+\x87o?'
tRp836
ag3
(g5
S'%\x86o?'
tRp837
ag3
(g5
S'\x91mo?'
tRp838
ag3
(g5
S'\x10Xo?'
tRp839
ag3
(g5
S'h\x91o?'
tRp840
ag3
(g5
S'\xc9vo?'
tRp841
ag3
(g5
S'\xbcto?'
tRp842
ag3
(g5
S'\x08\xaco?'
tRp843
ag3
(g5
S'\x08\xaco?'
tRp844
ag3
(g5
S'\xf0\xa7o?'
tRp845
ag3
(g5
S'\xe9\xa6o?'
tRp846
ag3
(g5
S'\x8d\x97o?'
tRp847
ag3
(g5
S'\xe9\xa6o?'
tRp848
ag3
(g5
S'^\xbao?'
tRp849
ag3
(g5
S'-\xb2o?'
tRp850
ag3
(g5
S'\x1b\xafo?'
tRp851
ag3
(g5
S'\x96\xc3o?'
tRp852
ag3
(g5
S'\xc1\xcao?'
tRp853
ag3
(g5
S'?\xb5o?'
tRp854
ag3
(g5
S'\x08\xaco?'
tRp855
ag3
(g5
S'j\xbco?'
tRp856
ag3
(g5
S'\x14\xaeo?'
tRp857
ag3
(g5
S'\n\xd7o?'
tRp858
ag3
(g5
S'`\xe5o?'
tRp859
ag3
(g5
S'\xdb\xf9o?'
tRp860
ag3
(g5
S'T\xe3o?'
tRp861
ag3
(g5
S'\x7f\xeao?'
tRp862
ag3
(g5
S'\x9a\x19p?'
tRp863
ag3
(g5
S'Z\xe4o?'
tRp864
ag3
(g5
S'\x19\x04p?'
tRp865
ag3
(g5
S'\xe9&p?'
tRp866
ag3
(g5
S'\x81\x15p?'
tRp867
ag3
(g5
S'J\x0cp?'
tRp868
ag3
(g5
S'\xb8\x1ep?'
tRp869
ag3
(g5
S'-2p?'
tRp870
ag3
(g5
S'\\\x0fp?'
tRp871
ag3
(g5
S'\x7fjp?'
tRp872
ag3
(g5
S'q=p?'
tRp873
ag3
(g5
S'\x1dZp?'
tRp874
ag3
(g5
S'\xbe\x1fp?'
tRp875
ag3
(g5
S'\xfc)p?'
tRp876
ag3
(g5
S'\xd3Mp?'
tRp877
ag3
(g5
S'Tcp?'
tRp878
ag3
(g5
S'yip?'
tRp879
ag3
(g5
S'Hap?'
tRp880
ag3
(g5
S'\xbctp?'
tRp881
ag3
(g5
S'Zdp?'
tRp882
ag3
(g5
S'D\x8bp?'
tRp883
ag3
(g5
S'{\x94p?'
tRp884
ag3
(g5
S'\x81\x95p?'
tRp885
ag3
(g5
S'V\x8ep?'
tRp886
ag3
(g5
S'+\x87p?'
tRp887
ag3
(g5
S'V\x8ep?'
tRp888
ag3
(g5
S'\x1f\x85p?'
tRp889
ag3
(g5
S'mgp?'
tRp890
ag3
(g5
S'\xb2\x9dp?'
tRp891
ag3
(g5
S'\x8d\x97p?'
tRp892
ag3
(g5
S'\x14\xaep?'
tRp893
ag3
(g5
S'?\xb5p?'
tRp894
ag3
(g5
S'\xe3\xa5p?'
tRp895
ag3
(g5
S'\xb8\x9ep?'
tRp896
ag3
(g5
S'L\xb7p?'
tRp897
ag3
(g5
S'V\x8ep?'
tRp898
ag3
(g5
S'\xdf\xcfp?'
tRp899
ag3
(g5
S'\x96\xc3p?'
tRp900
ag3
(g5
S'\x8b\xecp?'
tRp901
ag3
(g5
S'9\xb4p?'
tRp902
ag3
(g5
S'\xbe\x9fp?'
tRp903
ag3
(g5
S'`\xe5p?'
tRp904
ag3
(g5
S'\x9c\xc4p?'
tRp905
ag3
(g5
S'?\xb5p?'
tRp906
ag3
(g5
S'}\xbfp?'
tRp907
ag3
(g5
S'B\xe0p?'
tRp908
ag3
(g5
S'\x89\xc1p?'
tRp909
ag3
(g5
S'\xfe\xd4p?'
tRp910
ag3
(g5
S'\xc7\xcbp?'
tRp911
ag3
(g5
S'\xf4\xfdp?'
tRp912
ag3
(g5
S'`\xe5p?'
tRp913
ag3
(g5
S'\xb6\xf3p?'
tRp914
ag3
(g5
S'\xd1"q?'
tRp915
ag3
(g5
S'\xfa\xfep?'
tRp916
ag3
(g5
S'\xcf\xf7p?'
tRp917
ag3
(g5
S'\xa4\xf0p?'
tRp918
ag3
(g5
S'm\xe7p?'
tRp919
ag3
(g5
S'\xd5\xf8p?'
tRp920
ag3
(g5
S'y\xe9p?'
tRp921
ag3
(g5
S'\x1f\x05q?'
tRp922
ag3
(g5
S'J\x0cq?'
tRp923
ag3
(g5
S'\x81\x15q?'
tRp924
ag3
(g5
S'\xdd$q?'
tRp925
ag3
(g5
S'\x81\x15q?'
tRp926
ag3
(g5
S'\xe9&q?'
tRp927
ag3
(g5
S'\xd1"q?'
tRp928
ag3
(g5
S'94q?'
tRp929
ag3
(g5
S'+\x07q?'
tRp930
ag3
(g5
S"'1q?"
tRp931
ag3
(g5
S'\x06\x01q?'
tRp932
ag3
(g5
S'\x9a\x19q?'
tRp933
ag3
(g5
S'q=q?'
tRp934
ag3
(g5
S'\xe3%q?'
tRp935
ag3
(g5
S'\x00\x00q?'
tRp936
ag3
(g5
S'?5q?'
tRp937
ag3
(g5
S'-2q?'
tRp938
ag3
(g5
S'^:q?'
tRp939
ag3
(g5
S'}?q?'
tRp940
ag3
(g5
S'\xe9&q?'
tRp941
ag3
(g5
S'\xa8Fq?'
tRp942
ag3
(g5
S'X9q?'
tRp943
ag3
(g5
S'\x14.q?'
tRp944
ag3
(g5
S'\xc7Kq?'
tRp945
ag3
(g5
S'\xdd$q?'
tRp946
ag3
(g5
S'\xd3Mq?'
tRp947
ag3
(g5
S'\xa8Fq?'
tRp948
ag3
(g5
S'\xb4Hq?'
tRp949
ag3
(g5
S'\xf8Sq?'
tRp950
ag3
(g5
S'\xfeTq?'
tRp951
ag3
(g5
S'\xe5Pq?'
tRp952
ag3
(g5
S'\xf2Rq?'
tRp953
ag3
(g5
S'\nWq?'
tRp954
ag3
(g5
S'\x98nq?'
tRp955
ag3
(g5
S'\x10Xq?'
tRp956
ag3
(g5
S'\xc1Jq?'
tRp957
ag3
(g5
S'\xecQq?'
tRp958
ag3
(g5
S'yiq?'
tRp959
ag3
(g5
S'D\x8bq?'
tRp960
ag3
(g5
S'\x0c\x82q?'
tRp961
ag3
(g5
S'\x19\x84q?'
tRp962
ag3
(g5
S'D\x8bq?'
tRp963
ag3
(g5
S'\x9eoq?'
tRp964
ag3
(g5
S'\xf6\xa8q?'
tRp965
ag3
(g5
S'+\x87q?'
tRp966
ag3
(g5
S'\xa0\x9aq?'
tRp967
ag3
(g5
S'\xa6\x9bq?'
tRp968
ag3
(g5
S'\x02\xabq?'
tRp969
ag3
(g5
S'\xa6\x9bq?'
tRp970
ag3
(g5
S'-\xb2q?'
tRp971
ag3
(g5
S'\x0e\xadq?'
tRp972
ag3
(g5
S'\xd3\xcdq?'
tRp973
ag3
(g5
S'\xd1\xa2q?'
tRp974
ag3
(g5
S'\xfc\xa9q?'
tRp975
ag3
(g5
S'\xe3\xa5q?'
tRp976
ag3
(g5
S'\xd9\xceq?'
tRp977
ag3
(g5
S'\x93\x98q?'
tRp978
ag3
(g5
S'\xdd\xa4q?'
tRp979
ag3
(g5
S'\x0e\xadq?'
tRp980
ag3
(g5
S"'\xb1q?"
tRp981
ag3
(g5
S'\\\x8fq?'
tRp982
ag3
(g5
S'\x17\xd9q?'
tRp983
ag3
(g5
S'^\xbaq?'
tRp984
ag3
(g5
S'\xae\xc7q?'
tRp985
ag3
(g5
S'j\xbcq?'
tRp986
ag3
(g5
S'!\xb0q?'
tRp987
ag3
(g5
S'^\xbaq?'
tRp988
ag3
(g5
S'B\xe0q?'
tRp989
ag3
(g5
S'j\xbcq?'
tRp990
ag3
(g5
S'5\xdeq?'
tRp991
ag3
(g5
S'\xd3\xcdq?'
tRp992
ag3
(g5
S';\xdfq?'
tRp993
ag3
(g5
S'\n\xd7q?'
tRp994
ag3
(g5
S'^\xbaq?'
tRp995
ag3
(g5
S'\x85\xebq?'
tRp996
ag3
(g5
S')\xdcq?'
tRp997
ag3
(g5
S'\xfe\xd4q?'
tRp998
ag3
(g5
S'T\xe3q?'
tRp999
ag3
(g5
S'P\rr?'
tRp1000
ag3
(g5
S'\xf4\xfdq?'
tRp1001
ag3
(g5
S'\x87\x16r?'
tRp1002
ag3
(g5
S's\xe8q?'
tRp1003
ag3
(g5
S'\xe7\xfbq?'
tRp1004
ag3
(g5
S'\xec\xd1q?'
tRp1005
aa(lp1006
g3
(g5
S'#\xdb\xcd>'
tRp1007
ag3
(g5
S'!\xb0\xd6>'
tRp1008
ag3
(g5
S'\xb2\x9d\xd9>'
tRp1009
ag3
(g5
S'\xee|\xd9>'
tRp1010
ag3
(g5
S'?5\xda>'
tRp1011
ag3
(g5
S'\xecQ\xdc>'
tRp1012
ag3
(g5
S'\xd3M\xdc>'
tRp1013
ag3
(g5
S'\x89A\xdc>'
tRp1014
ag3
(g5
S'#\xdb\xdb>'
tRp1015
ag3
(g5
S'\n\xd7\xdb>'
tRp1016
ag3
(g5
S'\xa2E\xdc>'
tRp1017
ag3
(g5
S'\x9e\xef\xdb>'
tRp1018
ag3
(g5
S'ff\xdc>'
tRp1019
ag3
(g5
S'\x9a\x99\xdb>'
tRp1020
ag3
(g5
S'{\x14\xdc>'
tRp1021
ag3
(g5
S'\x7fj\xdc>'
tRp1022
ag3
(g5
S'\xdfO\xdd>'
tRp1023
ag3
(g5
S'=\n\xdd>'
tRp1024
ag3
(g5
S'o\x12\xdd>'
tRp1025
ag3
(g5
S'\xf8S\xdd>'
tRp1026
ag3
(g5
S'\xaeG\xdd>'
tRp1027
ag3
(g5
S'\n\xd7\xdd>'
tRp1028
ag3
(g5
S'\xdd$\xde>'
tRp1029
ag3
(g5
S'\xc9v\xde>'
tRp1030
ag3
(g5
S'\xb4\xc8\xde>'
tRp1031
ag3
(g5
S'\xa2E\xde>'
tRp1032
ag3
(g5
S'o\x12\xdf>'
tRp1033
ag3
(g5
S'\xfc\xa9\xdf>'
tRp1034
ag3
(g5
S'T\xe3\xdf>'
tRp1035
ag3
(g5
S'h\x91\xdf>'
tRp1036
ag3
(g5
S'q=\xe0>'
tRp1037
ag3
(g5
S'\x12\x83\xe0>'
tRp1038
ag3
(g5
S'\x96C\xe1>'
tRp1039
ag3
(g5
S'\xa0\x1a\xe1>'
tRp1040
ag3
(g5
S'\xf6(\xe2>'
tRp1041
ag3
(g5
S'\x98n\xe2>'
tRp1042
ag3
(g5
S'\xfa~\xe2>'
tRp1043
ag3
(g5
S'\xc7K\xe3>'
tRp1044
ag3
(g5
S'\xfa~\xe2>'
tRp1045
ag3
(g5
S'1\x08\xe4>'
tRp1046
ag3
(g5
S'D\x8b\xe4>'
tRp1047
ag3
(g5
S'\xbct\xe5>'
tRp1048
ag3
(g5
S'\xbct\xe5>'
tRp1049
ag3
(g5
S'\xfc\xa9\xe5>'
tRp1050
ag3
(g5
S'J\x0c\xe6>'
tRp1051
ag3
(g5
S'+\x87\xe6>'
tRp1052
ag3
(g5
S'`\xe5\xe6>'
tRp1053
ag3
(g5
S'\x96C\xe7>'
tRp1054
ag3
(g5
S'1\x08\xe8>'
tRp1055
ag3
(g5
S'u\x93\xe8>'
tRp1056
ag3
(g5
S'33\xe9>'
tRp1057
ag3
(g5
S'\xb6\xf3\xe9>'
tRp1058
ag3
(g5
S'\xdfO\xeb>'
tRp1059
ag3
(g5
S'\xd1"\xeb>'
tRp1060
ag3
(g5
S'\x00\x00\xec>'
tRp1061
ag3
(g5
S'\xa0\x1a\xed>'
tRp1062
ag3
(g5
S'^\xba\xed>'
tRp1063
ag3
(g5
S'\x87\x16\xef>'
tRp1064
ag3
(g5
S'\xc1\xca\xef>'
tRp1065
ag3
(g5
S'\x1f\x85\xef>'
tRp1066
ag3
(g5
S'\\\x8f\xf0>'
tRp1067
ag3
(g5
S'd;\xf1>'
tRp1068
ag3
(g5
S'\xf2\xd2\xf1>'
tRp1069
ag3
(g5
S'y\xe9\xf2>'
tRp1070
ag3
(g5
S'\xd1"\xf3>'
tRp1071
ag3
(g5
S'\x04V\xf4>'
tRp1072
ag3
(g5
S'\xd5x\xf5>'
tRp1073
ag3
(g5
S'F\xb6\xf7>'
tRp1074
ag3
(g5
S'\x1dZ\xf8>'
tRp1075
ag3
(g5
S'1\x08\xfa>'
tRp1076
ag3
(g5
S'\x1f\x85\xfb>'
tRp1077
ag3
(g5
S'\xe5\xd0\xfc>'
tRp1078
ag3
(g5
S'D\x8b\xfe>'
tRp1079
ag3
(g5
S'/\xdd\xfe>'
tRp1080
ag3
(g5
S'\xac\x1c\x00?'
tRp1081
ag3
(g5
S'\x17\xd9\x00?'
tRp1082
ag3
(g5
S'\xf0\xa7\x01?'
tRp1083
ag3
(g5
S'\xf0\xa7\x02?'
tRp1084
ag3
(g5
S'\xa6\x9b\x03?'
tRp1085
ag3
(g5
S'\xac\x1c\x04?'
tRp1086
ag3
(g5
S'\xf0\xa7\x04?'
tRp1087
ag3
(g5
S'\xf2\xd2\x05?'
tRp1088
ag3
(g5
S'\xf4\xfd\x06?'
tRp1089
ag3
(g5
S'\xa2E\x07?'
tRp1090
ag3
(g5
S'%\x06\x08?'
tRp1091
ag3
(g5
S'\xaa\xf1\x08?'
tRp1092
ag3
(g5
S'H\xe1\t?'
tRp1093
ag3
(g5
S'\xfe\xd4\n?'
tRp1094
ag3
(g5
S'!\xb0\x0b?'
tRp1095
ag3
(g5
S'\xe9&\x0c?'
tRp1096
ag3
(g5
S'L7\r?'
tRp1097
ag3
(g5
S'Nb\x0e?'
tRp1098
ag3
(g5
S'T\xe3\x0e?'
tRp1099
ag3
(g5
S'P\x8d\x10?'
tRp1100
ag3
(g5
S'\xa8\xc6\x11?'
tRp1101
ag3
(g5
S'-\xb2\x12?'
tRp1102
ag3
(g5
S'#\xdb\x13?'
tRp1103
ag3
(g5
S'\xcd\xcc\x14?'
tRp1104
ag3
(g5
S'\x0c\x02\x16?'
tRp1105
ag3
(g5
S'`\xe5\x16?'
tRp1106
ag3
(g5
S'\xa2E\x17?'
tRp1107
ag3
(g5
S'w\xbe\x18?'
tRp1108
ag3
(g5
S'\xe1z\x19?'
tRp1109
ag3
(g5
S'7\x89\x1a?'
tRp1110
ag3
(g5
S'\x93\x18\x1b?'
tRp1111
ag3
(g5
S'/\xdd\x1b?'
tRp1112
ag3
(g5
S'q=\x1c?'
tRp1113
ag3
(g5
S'b\x10\x1d?'
tRp1114
ag3
(g5
S'\x87\x16\x1e?'
tRp1115
ag3
(g5
S'\x85\xeb\x1e?'
tRp1116
ag3
(g5
S'\x1dZ\x1f?'
tRp1117
ag3
(g5
S'u\x93 ?'
tRp1118
ag3
(g5
S'\x1f\x85!?'
tRp1119
ag3
(g5
S'y\xe9!?'
tRp1120
ag3
(g5
S'\xc7K#?'
tRp1121
ag3
(g5
S'\x91\xed#?'
tRp1122
ag3
(g5
S'\xb4\xc8$?'
tRp1123
ag3
(g5
S'\x9a\x99%?'
tRp1124
ag3
(g5
S'd;&?'
tRp1125
ag3
(g5
S"\x93\x18'?"
tRp1126
ag3
(g5
S"\xf2\xd2'?"
tRp1127
ag3
(g5
S"\xc3\xf5'?"
tRp1128
ag3
(g5
S'u\x93(?'
tRp1129
ag3
(g5
S'\xd5x)?'
tRp1130
ag3
(g5
S'\xc7K*?'
tRp1131
ag3
(g5
S'D\x8b*?'
tRp1132
ag3
(g5
S'J\x0c+?'
tRp1133
ag3
(g5
S'j\xbc+?'
tRp1134
ag3
(g5
S'\x85\xeb+?'
tRp1135
ag3
(g5
S'\xd7\xa3,?'
tRp1136
ag3
(g5
S'\xa8\xc6,?'
tRp1137
ag3
(g5
S'`\xe5-?'
tRp1138
ag3
(g5
S'Nb.?'
tRp1139
ag3
(g5
S'\x8f\xc2.?'
tRp1140
ag3
(g5
S'h\x91/?'
tRp1141
ag3
(g5
S'\xee|0?'
tRp1142
ag3
(g5
S'#\xdb0?'
tRp1143
ag3
(g5
S'\x8bl1?'
tRp1144
ag3
(g5
S'\xd9\xce1?'
tRp1145
ag3
(g5
S'+\x872?'
tRp1146
ag3
(g5
S'`\xe52?'
tRp1147
ag3
(g5
S'\x12\x833?'
tRp1148
ag3
(g5
S'\xf2\xd23?'
tRp1149
ag3
(g5
S'\xbct4?'
tRp1150
ag3
(g5
S'j\xbc4?'
tRp1151
ag3
(g5
S"'15?"
tRp1152
ag3
(g5
S'\x0e-6?'
tRp1153
ag3
(g5
S'\xa8\xc66?'
tRp1154
ag3
(g5
S'sh7?'
tRp1155
ag3
(g5
S'\xc9v7?'
tRp1156
ag3
(g5
S'{\x148?'
tRp1157
ag3
(g5
S'\x08\xac8?'
tRp1158
ag3
(g5
S'\x81\x959?'
tRp1159
ag3
(g5
S'J\x0c:?'
tRp1160
ag3
(g5
S'u\x93:?'
tRp1161
ag3
(g5
S'\x17\xd9:?'
tRp1162
ag3
(g5
S'\xfe\xd4;?'
tRp1163
ag3
(g5
S'\x83\xc0;?'
tRp1164
ag3
(g5
S'V\x0e<?'
tRp1165
ag3
(g5
S'sh<?'
tRp1166
ag3
(g5
S'`\xe5<?'
tRp1167
ag3
(g5
S'\xd5x=?'
tRp1168
ag3
(g5
S'\x00\x00>?'
tRp1169
ag3
(g5
S'\xaa\xf1>?'
tRp1170
ag3
(g5
S'/\xdd>?'
tRp1171
ag3
(g5
S'\xb0r??'
tRp1172
ag3
(g5
S'\xd3M??'
tRp1173
ag3
(g5
S'\xd9\xce??'
tRp1174
ag3
(g5
S'\xaeG@?'
tRp1175
ag3
(g5
S'/\xdd@?'
tRp1176
ag3
(g5
S'\xdfOA?'
tRp1177
ag3
(g5
S'%\x06A?'
tRp1178
ag3
(g5
S'\xfc\xa9A?'
tRp1179
ag3
(g5
S'\x17\xd9A?'
tRp1180
ag3
(g5
S'\xbctB?'
tRp1181
ag3
(g5
S'\xaa\xf1B?'
tRp1182
ag3
(g5
S'\xac\x1cC?'
tRp1183
ag3
(g5
S'\xb2\x9dC?'
tRp1184
ag3
(g5
S'\xbe\x9fC?'
tRp1185
ag3
(g5
S'd;D?'
tRp1186
ag3
(g5
S'\x10XD?'
tRp1187
ag3
(g5
S'\xcb\xa1D?'
tRp1188
ag3
(g5
S'\xf2\xd2D?'
tRp1189
ag3
(g5
S'b\x10E?'
tRp1190
ag3
(g5
S'ZdE?'
tRp1191
ag3
(g5
S'y\xe9E?'
tRp1192
ag3
(g5
S'\xe5\xd0E?'
tRp1193
ag3
(g5
S'\x93\x18F?'
tRp1194
ag3
(g5
S'\xaeGF?'
tRp1195
ag3
(g5
S'\x98nF?'
tRp1196
ag3
(g5
S'\x83\xc0F?'
tRp1197
ag3
(g5
S'\x1b/G?'
tRp1198
ag3
(g5
S'B`G?'
tRp1199
ag3
(g5
S'\xac\x1cG?'
tRp1200
ag3
(g5
S')\\G?'
tRp1201
ag3
(g5
S'\xbaIG?'
tRp1202
ag3
(g5
S'9\xb4G?'
tRp1203
ag3
(g5
S'\xcf\xf7G?'
tRp1204
ag3
(g5
S'\xac\x1cH?'
tRp1205
ag3
(g5
S'\xfa~H?'
tRp1206
ag3
(g5
S'\xf2\xd2H?'
tRp1207
ag3
(g5
S'w\xbeH?'
tRp1208
ag3
(g5
S'\xa0\x1aI?'
tRp1209
ag3
(g5
S'\xdfOI?'
tRp1210
ag3
(g5
S'\x83\xc0H?'
tRp1211
ag3
(g5
S'^\xbaI?'
tRp1212
ag3
(g5
S'\x02+I?'
tRp1213
ag3
(g5
S'\x98nI?'
tRp1214
ag3
(g5
S'\xd7\xa3I?'
tRp1215
ag3
(g5
S'\xfc\xa9I?'
tRp1216
ag3
(g5
S'\xc9vJ?'
tRp1217
ag3
(g5
S'+\x87J?'
tRp1218
ag3
(g5
S'\x7fjJ?'
tRp1219
ag3
(g5
S'9\xb4J?'
tRp1220
ag3
(g5
S'\xc5 K?'
tRp1221
ag3
(g5
S'\x9a\x99K?'
tRp1222
ag3
(g5
S'\xb0rK?'
tRp1223
ag3
(g5
S'\xdd$L?'
tRp1224
ag3
(g5
S'\xfe\xd4K?'
tRp1225
ag3
(g5
S'5^L?'
tRp1226
ag3
(g5
S'\x7fjL?'
tRp1227
ag3
(g5
S'/\xddL?'
tRp1228
ag3
(g5
S'D\x8bL?'
tRp1229
ag3
(g5
S'\xfc\xa9L?'
tRp1230
ag3
(g5
S'7\x89L?'
tRp1231
ag3
(g5
S'V\x0eM?'
tRp1232
ag3
(g5
S'\xf4\xfdL?'
tRp1233
ag3
(g5
S'\x0c\x02N?'
tRp1234
ag3
(g5
S'\x19\x04N?'
tRp1235
ag3
(g5
S'/\xddM?'
tRp1236
ag3
(g5
S'\x0e-N?'
tRp1237
ag3
(g5
S'\xbaIN?'
tRp1238
ag3
(g5
S'\xc3\xf5M?'
tRp1239
ag3
(g5
S'B`N?'
tRp1240
ag3
(g5
S'-\xb2N?'
tRp1241
ag3
(g5
S'F\xb6N?'
tRp1242
ag3
(g5
S'\xc7KN?'
tRp1243
ag3
(g5
S';\xdfN?'
tRp1244
ag3
(g5
S'\x02+O?'
tRp1245
ag3
(g5
S'\xb6\xf3N?'
tRp1246
ag3
(g5
S'\xf6(O?'
tRp1247
ag3
(g5
S'\x9a\x99O?'
tRp1248
ag3
(g5
S'P\x8dO?'
tRp1249
ag3
(g5
S'\xcb\xa1O?'
tRp1250
ag3
(g5
S'?5O?'
tRp1251
ag3
(g5
S'\xf0\xa7O?'
tRp1252
ag3
(g5
S'\xaeGO?'
tRp1253
ag3
(g5
S'\\\x8fO?'
tRp1254
ag3
(g5
S'\x8f\xc2O?'
tRp1255
ag3
(g5
S'`\xe5O?'
tRp1256
ag3
(g5
S'ffP?'
tRp1257
ag3
(g5
S'\x7fjP?'
tRp1258
ag3
(g5
S'\xaeGP?'
tRp1259
ag3
(g5
S'%\x06P?'
tRp1260
ag3
(g5
S'X9P?'
tRp1261
ag3
(g5
S'\xaa\xf1O?'
tRp1262
ag3
(g5
S'\xdb\xf9P?'
tRp1263
ag3
(g5
S'\xc1\xcaP?'
tRp1264
ag3
(g5
S'\xbaIQ?'
tRp1265
ag3
(g5
S'\x14\xaeP?'
tRp1266
ag3
(g5
S'\xd1"Q?'
tRp1267
ag3
(g5
S'\xcd\xccP?'
tRp1268
ag3
(g5
S'\x06\x81Q?'
tRp1269
ag3
(g5
S'\x0c\x02Q?'
tRp1270
ag3
(g5
S'\x14\xaeQ?'
tRp1271
ag3
(g5
S'\xf0\xa7Q?'
tRp1272
ag3
(g5
S'\xaa\xf1Q?'
tRp1273
ag3
(g5
S'\xf4\xfdQ?'
tRp1274
ag3
(g5
S'-\xb2Q?'
tRp1275
ag3
(g5
S'\x0e-R?'
tRp1276
ag3
(g5
S'\x96CR?'
tRp1277
ag3
(g5
S'=\nR?'
tRp1278
ag3
(g5
S'\xdd$R?'
tRp1279
ag3
(g5
S'\x04VR?'
tRp1280
ag3
(g5
S'\x1b/R?'
tRp1281
ag3
(g5
S'y\xe9Q?'
tRp1282
ag3
(g5
S'\x02+R?'
tRp1283
ag3
(g5
S'-\xb2Q?'
tRp1284
ag3
(g5
S'ZdR?'
tRp1285
ag3
(g5
S'\xac\x1cR?'
tRp1286
ag3
(g5
S'^\xbaR?'
tRp1287
ag3
(g5
S'\xb8\x1eS?'
tRp1288
ag3
(g5
S'shS?'
tRp1289
ag3
(g5
S'\xecQS?'
tRp1290
ag3
(g5
S'\xe7\xfbR?'
tRp1291
ag3
(g5
S'\x8d\x97S?'
tRp1292
ag3
(g5
S'\xdd$S?'
tRp1293
ag3
(g5
S'P\x8dS?'
tRp1294
ag3
(g5
S'\x83\xc0S?'
tRp1295
ag3
(g5
S'shS?'
tRp1296
ag3
(g5
S'NbS?'
tRp1297
ag3
(g5
S'\x8f\xc2S?'
tRp1298
ag3
(g5
S'\x8f\xc2S?'
tRp1299
ag3
(g5
S'\xb8\x1eT?'
tRp1300
ag3
(g5
S'\xa6\x9bS?'
tRp1301
ag3
(g5
S'\xa0\x1aT?'
tRp1302
ag3
(g5
S'\x0c\x02T?'
tRp1303
ag3
(g5
S'\xe3\xa5T?'
tRp1304
ag3
(g5
S'\xa0\x1aT?'
tRp1305
ag3
(g5
S'T\xe3T?'
tRp1306
ag3
(g5
S'\xd3MT?'
tRp1307
ag3
(g5
S'\xbaIT?'
tRp1308
ag3
(g5
S'\xaeGT?'
tRp1309
ag3
(g5
S'\x8f\xc2T?'
tRp1310
ag3
(g5
S'\x8blT?'
tRp1311
ag3
(g5
S'\xdd$T?'
tRp1312
ag3
(g5
S'\xa4pT?'
tRp1313
ag3
(g5
S'\xe9&T?'
tRp1314
ag3
(g5
S'\xbaIT?'
tRp1315
ag3
(g5
S'\xc1\xcaT?'
tRp1316
ag3
(g5
S'\x87\x16U?'
tRp1317
ag3
(g5
S'b\x10U?'
tRp1318
ag3
(g5
S'\xe9&U?'
tRp1319
ag3
(g5
S'\x98nU?'
tRp1320
ag3
(g5
S'\x81\x95U?'
tRp1321
ag3
(g5
S'\x85\xebU?'
tRp1322
ag3
(g5
S'\x81\x95V?'
tRp1323
ag3
(g5
S'=\nV?'
tRp1324
ag3
(g5
S'`\xe5U?'
tRp1325
ag3
(g5
S'\x96CV?'
tRp1326
ag3
(g5
S'=\nV?'
tRp1327
ag3
(g5
S'q=V?'
tRp1328
ag3
(g5
S'\x96CV?'
tRp1329
ag3
(g5
S'j\xbcU?'
tRp1330
ag3
(g5
S'\xe7\xfbU?'
tRp1331
ag3
(g5
S'\xcb\xa1V?'
tRp1332
ag3
(g5
S'!\xb0V?'
tRp1333
ag3
(g5
S'\x06\x81V?'
tRp1334
ag3
(g5
S'd;V?'
tRp1335
ag3
(g5
S')\\V?'
tRp1336
ag3
(g5
S'w\xbeV?'
tRp1337
ag3
(g5
S'\xa0\x1aW?'
tRp1338
ag3
(g5
S'\xb8\x1eW?'
tRp1339
ag3
(g5
S'h\x91W?'
tRp1340
ag3
(g5
S'\xcb\xa1V?'
tRp1341
ag3
(g5
S'\xf8SV?'
tRp1342
ag3
(g5
S'\xa6\x9bW?'
tRp1343
ag3
(g5
S'\xdfOW?'
tRp1344
ag3
(g5
S'1\x08W?'
tRp1345
ag3
(g5
S'NbW?'
tRp1346
ag3
(g5
S'\xb0rW?'
tRp1347
ag3
(g5
S'T\xe3W?'
tRp1348
ag3
(g5
S'1\x08X?'
tRp1349
ag3
(g5
S';\xdfW?'
tRp1350
ag3
(g5
S'#\xdbW?'
tRp1351
ag3
(g5
S'\x85\xebW?'
tRp1352
ag3
(g5
S'\xa2EX?'
tRp1353
ag3
(g5
S'\xdb\xf9W?'
tRp1354
ag3
(g5
S'\x0c\x02X?'
tRp1355
ag3
(g5
S'\x96CX?'
tRp1356
ag3
(g5
S'\x96CX?'
tRp1357
ag3
(g5
S'\xb8\x1eX?'
tRp1358
ag3
(g5
S'\xc9vX?'
tRp1359
ag3
(g5
S'h\x91X?'
tRp1360
ag3
(g5
S'\xfa~X?'
tRp1361
ag3
(g5
S'u\x93X?'
tRp1362
ag3
(g5
S'\x8f\xc2X?'
tRp1363
ag3
(g5
S'm\xe7X?'
tRp1364
ag3
(g5
S'u\x93X?'
tRp1365
ag3
(g5
S'F\xb6X?'
tRp1366
ag3
(g5
S'P\x8dX?'
tRp1367
ag3
(g5
S'\xa6\x9bX?'
tRp1368
ag3
(g5
S'#\xdbX?'
tRp1369
ag3
(g5
S'\xf4\xfdX?'
tRp1370
ag3
(g5
S')\\Y?'
tRp1371
ag3
(g5
S'NbY?'
tRp1372
ag3
(g5
S'+\x87Y?'
tRp1373
ag3
(g5
S'7\x89Y?'
tRp1374
ag3
(g5
S'\x8d\x97Y?'
tRp1375
ag3
(g5
S'\x81\x95Y?'
tRp1376
ag3
(g5
S'\xe3\xa5Y?'
tRp1377
ag3
(g5
S'\xf0\xa7Y?'
tRp1378
ag3
(g5
S'\xdfOY?'
tRp1379
ag3
(g5
S'\x10XY?'
tRp1380
ag3
(g5
S'P\x8dY?'
tRp1381
ag3
(g5
S'u\x93Y?'
tRp1382
ag3
(g5
S'\xa4pY?'
tRp1383
ag3
(g5
S'\xf0\xa7Y?'
tRp1384
ag3
(g5
S'\n\xd7Y?'
tRp1385
ag3
(g5
S'\xe5\xd0Y?'
tRp1386
ag3
(g5
S'V\x0eZ?'
tRp1387
ag3
(g5
S'\xdd$Z?'
tRp1388
ag3
(g5
S'\xbaIZ?'
tRp1389
ag3
(g5
S')\\Z?'
tRp1390
ag3
(g5
S'!\xb0Z?'
tRp1391
ag3
(g5
S'u\x93Z?'
tRp1392
ag3
(g5
S'w\xbeZ?'
tRp1393
ag3
(g5
S'\xfa~Z?'
tRp1394
ag3
(g5
S'%\x06[?'
tRp1395
ag3
(g5
S'\x9c\xc4Z?'
tRp1396
ag3
(g5
S'\x17\xd9Z?'
tRp1397
ag3
(g5
S'F\xb6Z?'
tRp1398
ag3
(g5
S'\x14\xaeZ?'
tRp1399
ag3
(g5
S'ZdZ?'
tRp1400
ag3
(g5
S'\x9a\x99Z?'
tRp1401
ag3
(g5
S'9\xb4Z?'
tRp1402
ag3
(g5
S'\x19\x04[?'
tRp1403
ag3
(g5
S'\x9e\xefZ?'
tRp1404
ag3
(g5
S'\xa6\x9bZ?'
tRp1405
ag3
(g5
S'\x19\x04[?'
tRp1406
ag3
(g5
S'\x08\xacZ?'
tRp1407
ag3
(g5
S'{\x14[?'
tRp1408
ag3
(g5
S'^\xbaZ?'
tRp1409
ag3
(g5
S'\n\xd7Z?'
tRp1410
ag3
(g5
S'\x0c\x02[?'
tRp1411
ag3
(g5
S'=\n[?'
tRp1412
ag3
(g5
S'%\x06[?'
tRp1413
ag3
(g5
S'b\x10[?'
tRp1414
ag3
(g5
S'\xfe\xd4Z?'
tRp1415
ag3
(g5
S'{\x14[?'
tRp1416
ag3
(g5
S'd;[?'
tRp1417
ag3
(g5
S'\x19\x04[?'
tRp1418
ag3
(g5
S'\x93\x18[?'
tRp1419
ag3
(g5
S'\x19\x04[?'
tRp1420
ag3
(g5
S'J\x0c[?'
tRp1421
ag3
(g5
S'j\xbcZ?'
tRp1422
ag3
(g5
S'\x9c\xc4Z?'
tRp1423
ag3
(g5
S'\x85\xebZ?'
tRp1424
ag3
(g5
S'\x87\x16[?'
tRp1425
ag3
(g5
S'\x87\x16[?'
tRp1426
ag3
(g5
S'\x9e\xefZ?'
tRp1427
ag3
(g5
S'\xcf\xf7Z?'
tRp1428
ag3
(g5
S'=\n[?'
tRp1429
ag3
(g5
S'\\\x8fZ?'
tRp1430
ag3
(g5
S'\xbaIZ?'
tRp1431
ag3
(g5
S'/\xddZ?'
tRp1432
ag3
(g5
S'b\x10[?'
tRp1433
ag3
(g5
S'\xa4pZ?'
tRp1434
ag3
(g5
S'\xfe\xd4Z?'
tRp1435
ag3
(g5
S'\xdfO[?'
tRp1436
ag3
(g5
S'\xc5 [?'
tRp1437
ag3
(g5
S'\xb0rZ?'
tRp1438
ag3
(g5
S'D\x8b[?'
tRp1439
ag3
(g5
S'\xd1"[?'
tRp1440
ag3
(g5
S'/\xddZ?'
tRp1441
ag3
(g5
S'\x9c\xc4Z?'
tRp1442
ag3
(g5
S'j\xbcZ?'
tRp1443
ag3
(g5
S'F\xb6Z?'
tRp1444
ag3
(g5
S'\xac\x1c[?'
tRp1445
ag3
(g5
S'\xb4\xc8[?'
tRp1446
ag3
(g5
S'\xb4\xc8[?'
tRp1447
ag3
(g5
S'33[?'
tRp1448
ag3
(g5
S'\xaeG[?'
tRp1449
ag3
(g5
S'B`[?'
tRp1450
ag3
(g5
S'H\xe1[?'
tRp1451
ag3
(g5
S'\x87\x16\\?'
tRp1452
ag3
(g5
S'\xecQ\\?'
tRp1453
ag3
(g5
S'\x85\xeb[?'
tRp1454
ag3
(g5
S'\x96C\\?'
tRp1455
ag3
(g5
S'L7\\?'
tRp1456
ag3
(g5
S'%\x06\\?'
tRp1457
ag3
(g5
S'\xcd\xcc[?'
tRp1458
ag3
(g5
S"'1\\?"
tRp1459
ag3
(g5
S'\xd3M\\?'
tRp1460
ag3
(g5
S'\x98n\\?'
tRp1461
ag3
(g5
S'\xf8S\\?'
tRp1462
ag3
(g5
S'\xb2\x9d\\?'
tRp1463
ag3
(g5
S'\x8bl\\?'
tRp1464
ag3
(g5
S'\x1dZ\\?'
tRp1465
ag3
(g5
S'\x98n\\?'
tRp1466
ag3
(g5
S'T\xe3[?'
tRp1467
ag3
(g5
S'\xc3\xf5[?'
tRp1468
ag3
(g5
S'\xb8\x1e\\?'
tRp1469
ag3
(g5
S'J\x0c\\?'
tRp1470
ag3
(g5
S'\xe9&\\?'
tRp1471
ag3
(g5
S'J\x0c\\?'
tRp1472
ag3
(g5
S'^\xba[?'
tRp1473
ag3
(g5
S'\xee|\\?'
tRp1474
ag3
(g5
S'}?\\?'
tRp1475
ag3
(g5
S'\xaa\xf1[?'
tRp1476
ag3
(g5
S'\x12\x83\\?'
tRp1477
ag3
(g5
S'\xecQ\\?'
tRp1478
ag3
(g5
S'\x83\xc0\\?'
tRp1479
ag3
(g5
S'\xe9&\\?'
tRp1480
ag3
(g5
S'\xb2\x9d\\?'
tRp1481
ag3
(g5
S'\xfe\xd4\\?'
tRp1482
ag3
(g5
S'sh\\?'
tRp1483
ag3
(g5
S'=\n]?'
tRp1484
ag3
(g5
S'\x02+]?'
tRp1485
ag3
(g5
S'H\xe1\\?'
tRp1486
ag3
(g5
S'\x0e-]?'
tRp1487
ag3
(g5
S'\x96C]?'
tRp1488
ag3
(g5
S'\x1dZ\\?'
tRp1489
ag3
(g5
S'ff]?'
tRp1490
ag3
(g5
S'\x89A]?'
tRp1491
ag3
(g5
S'\x02+]?'
tRp1492
ag3
(g5
S'\xdfO]?'
tRp1493
ag3
(g5
S'\xa4p]?'
tRp1494
ag3
(g5
S'^\xba]?'
tRp1495
ag3
(g5
S'\xd7\xa3]?'
tRp1496
ag3
(g5
S'B`]?'
tRp1497
ag3
(g5
S'5^^?'
tRp1498
ag3
(g5
S'y\xe9]?'
tRp1499
ag3
(g5
S'/\xdd]?'
tRp1500
ag3
(g5
S'}?^?'
tRp1501
ag3
(g5
S'\x7fj^?'
tRp1502
ag3
(g5
S'\x00\x00^?'
tRp1503
ag3
(g5
S'\xcf\xf7]?'
tRp1504
ag3
(g5
S'%\x06^?'
tRp1505
ag3
(g5
S'{\x14^?'
tRp1506
ag3
(g5
S'J\x0c^?'
tRp1507
ag3
(g5
S'\xdb\xf9]?'
tRp1508
ag3
(g5
S"'1^?"
tRp1509
ag3
(g5
S'F\xb6]?'
tRp1510
ag3
(g5
S'\xb0r]?'
tRp1511
ag3
(g5
S'+\x87]?'
tRp1512
ag3
(g5
S'L7]?'
tRp1513
ag3
(g5
S'\xfc\xa9]?'
tRp1514
ag3
(g5
S'\xc7K]?'
tRp1515
ag3
(g5
S'h\x91]?'
tRp1516
ag3
(g5
S'\xa2E]?'
tRp1517
ag3
(g5
S'\xcd\xcc]?'
tRp1518
ag3
(g5
S'\xdd$]?'
tRp1519
ag3
(g5
S'\x9a\x99]?'
tRp1520
ag3
(g5
S'\\\x8f]?'
tRp1521
ag3
(g5
S'\xecQ]?'
tRp1522
ag3
(g5
S'\xa8\xc6]?'
tRp1523
ag3
(g5
S'\xa6\x9b]?'
tRp1524
ag3
(g5
S'\xa2E]?'
tRp1525
ag3
(g5
S'\x1f\x85]?'
tRp1526
ag3
(g5
S'\xd9\xce]?'
tRp1527
ag3
(g5
S'\x91\xed]?'
tRp1528
ag3
(g5
S'\xdd$^?'
tRp1529
ag3
(g5
S'\x0c\x02^?'
tRp1530
ag3
(g5
S'\x8d\x97^?'
tRp1531
ag3
(g5
S'%\x06^?'
tRp1532
ag3
(g5
S'sh^?'
tRp1533
ag3
(g5
S'B`^?'
tRp1534
ag3
(g5
S'\xc9v^?'
tRp1535
ag3
(g5
S'\xbct^?'
tRp1536
ag3
(g5
S'\xc9v^?'
tRp1537
ag3
(g5
S'V\x0e^?'
tRp1538
ag3
(g5
S'\x14\xae^?'
tRp1539
ag3
(g5
S'\\\x8f^?'
tRp1540
ag3
(g5
S'\x98n^?'
tRp1541
ag3
(g5
S'7\x89^?'
tRp1542
ag3
(g5
S'sh^?'
tRp1543
ag3
(g5
S'\xfc\xa9^?'
tRp1544
ag3
(g5
S'-\xb2^?'
tRp1545
ag3
(g5
S'u\x93^?'
tRp1546
ag3
(g5
S';\xdf^?'
tRp1547
ag3
(g5
S'\xfe\xd4^?'
tRp1548
ag3
(g5
S'j\xbc^?'
tRp1549
ag3
(g5
S'!\xb0^?'
tRp1550
ag3
(g5
S'#\xdb^?'
tRp1551
ag3
(g5
S'\xe3\xa5^?'
tRp1552
ag3
(g5
S'\xe5\xd0^?'
tRp1553
ag3
(g5
S'\xfa~^?'
tRp1554
ag3
(g5
S'\xb4\xc8^?'
tRp1555
ag3
(g5
S'\xcb\xa1^?'
tRp1556
ag3
(g5
S'\xe1z^?'
tRp1557
ag3
(g5
S'\xee|^?'
tRp1558
ag3
(g5
S'\xe5\xd0^?'
tRp1559
ag3
(g5
S'\xc1\xca^?'
tRp1560
ag3
(g5
S'\xecQ^?'
tRp1561
ag3
(g5
S'h\x91^?'
tRp1562
ag3
(g5
S'\xb4\xc8^?'
tRp1563
ag3
(g5
S'\xfc\xa9^?'
tRp1564
ag3
(g5
S'\x0e-_?'
tRp1565
ag3
(g5
S'{\x14_?'
tRp1566
ag3
(g5
S'\xd7\xa3_?'
tRp1567
ag3
(g5
S'33_?'
tRp1568
ag3
(g5
S'33_?'
tRp1569
ag3
(g5
S'V\x0e_?'
tRp1570
ag3
(g5
S'\xc9v_?'
tRp1571
ag3
(g5
S'\x1dZ_?'
tRp1572
ag3
(g5
S'\x0e-_?'
tRp1573
ag3
(g5
S'\x12\x83_?'
tRp1574
ag3
(g5
S'\x12\x83_?'
tRp1575
ag3
(g5
S'\\\x8f_?'
tRp1576
ag3
(g5
S'\xd3M_?'
tRp1577
ag3
(g5
S'\xb8\x1e_?'
tRp1578
ag3
(g5
S'\xfa~_?'
tRp1579
ag3
(g5
S'\xbe\x9f_?'
tRp1580
ag3
(g5
S';\xdf_?'
tRp1581
ag3
(g5
S'\x08\xac_?'
tRp1582
ag3
(g5
S'\xe5\xd0_?'
tRp1583
ag3
(g5
S'\x83\xc0_?'
tRp1584
ag3
(g5
S'\xd5x_?'
tRp1585
ag3
(g5
S'\x81\x95_?'
tRp1586
ag3
(g5
S'+\x87_?'
tRp1587
ag3
(g5
S'\xb6\xf3_?'
tRp1588
ag3
(g5
S'w\xbe_?'
tRp1589
ag3
(g5
S'\xf4\xfd_?'
tRp1590
ag3
(g5
S'\xe5\xd0_?'
tRp1591
ag3
(g5
S'\xfc\xa9_?'
tRp1592
ag3
(g5
S'\x0c\x02`?'
tRp1593
ag3
(g5
S'\xb4\xc8_?'
tRp1594
ag3
(g5
S'H\xe1_?'
tRp1595
ag3
(g5
S'\xaa\xf1_?'
tRp1596
ag3
(g5
S'\x93\x18`?'
tRp1597
ag3
(g5
S'\n\xd7_?'
tRp1598
ag3
(g5
S'/\xdd_?'
tRp1599
ag3
(g5
S'\xf2\xd2_?'
tRp1600
ag3
(g5
S'\xe9&`?'
tRp1601
ag3
(g5
S'\xe9&`?'
tRp1602
ag3
(g5
S'\xd1"`?'
tRp1603
ag3
(g5
S'%\x06`?'
tRp1604
ag3
(g5
S'o\x12`?'
tRp1605
ag3
(g5
S'\xe5\xd0_?'
tRp1606
ag3
(g5
S'H\xe1_?'
tRp1607
ag3
(g5
S'=\n`?'
tRp1608
ag3
(g5
S'J\x0c`?'
tRp1609
ag3
(g5
S'\xd9\xce_?'
tRp1610
ag3
(g5
S'\xfe\xd4_?'
tRp1611
ag3
(g5
S'!\xb0_?'
tRp1612
ag3
(g5
S'\xc7K`?'
tRp1613
ag3
(g5
S'\xc5 `?'
tRp1614
ag3
(g5
S'\xac\x1c`?'
tRp1615
ag3
(g5
S'`\xe5_?'
tRp1616
ag3
(g5
S'\xcd\xcc_?'
tRp1617
ag3
(g5
S'\xa0\x1a`?'
tRp1618
ag3
(g5
S'\xf4\xfd_?'
tRp1619
ag3
(g5
S'\x1dZ`?'
tRp1620
ag3
(g5
S'\xf4\xfd_?'
tRp1621
ag3
(g5
S'\xa8\xc6_?'
tRp1622
ag3
(g5
S'\x91\xed_?'
tRp1623
ag3
(g5
S'q=`?'
tRp1624
ag3
(g5
S'\x0e-`?'
tRp1625
ag3
(g5
S'?5`?'
tRp1626
ag3
(g5
S'\x19\x04`?'
tRp1627
ag3
(g5
S'o\x12`?'
tRp1628
ag3
(g5
S'\xbaI`?'
tRp1629
ag3
(g5
S'\xdfO`?'
tRp1630
ag3
(g5
S'\xb0r`?'
tRp1631
ag3
(g5
S'}?`?'
tRp1632
ag3
(g5
S'ff`?'
tRp1633
ag3
(g5
S'\x96C`?'
tRp1634
ag3
(g5
S'\xe9&`?'
tRp1635
ag3
(g5
S'\xbaI`?'
tRp1636
ag3
(g5
S'V\x0e`?'
tRp1637
ag3
(g5
S'\xac\x1c`?'
tRp1638
ag3
(g5
S'w\xbe`?'
tRp1639
ag3
(g5
S'D\x8b`?'
tRp1640
ag3
(g5
S'\xe1z`?'
tRp1641
ag3
(g5
S'D\x8b`?'
tRp1642
ag3
(g5
S'\x7fj`?'
tRp1643
ag3
(g5
S'R\xb8`?'
tRp1644
ag3
(g5
S"'1`?"
tRp1645
ag3
(g5
S'\\\x8f`?'
tRp1646
ag3
(g5
S'T\xe3`?'
tRp1647
ag3
(g5
S'\x12\x83`?'
tRp1648
ag3
(g5
S'\x9a\x99`?'
tRp1649
ag3
(g5
S'P\x8d`?'
tRp1650
ag3
(g5
S'!\xb0`?'
tRp1651
ag3
(g5
S'\x0e-`?'
tRp1652
ag3
(g5
S'\xa6\x9b`?'
tRp1653
ag3
(g5
S'm\xe7`?'
tRp1654
ag3
(g5
S'\xd7\xa3`?'
tRp1655
ag3
(g5
S'\xd5x`?'
tRp1656
ag3
(g5
S'R\xb8`?'
tRp1657
ag3
(g5
S'w\xbe`?'
tRp1658
ag3
(g5
S'\xe1z`?'
tRp1659
ag3
(g5
S'\x98n`?'
tRp1660
ag3
(g5
S'5^`?'
tRp1661
ag3
(g5
S'D\x8b`?'
tRp1662
ag3
(g5
S'h\x91`?'
tRp1663
ag3
(g5
S'!\xb0`?'
tRp1664
ag3
(g5
S'\x91\xed`?'
tRp1665
ag3
(g5
S'ff`?'
tRp1666
ag3
(g5
S'h\x91`?'
tRp1667
ag3
(g5
S'\\\x8f`?'
tRp1668
ag3
(g5
S'\x12\x83`?'
tRp1669
ag3
(g5
S'\x14\xae`?'
tRp1670
ag3
(g5
S'\xe3\xa5`?'
tRp1671
ag3
(g5
S'\x81\x95`?'
tRp1672
ag3
(g5
S'sh`?'
tRp1673
ag3
(g5
S'\xa0\x1aa?'
tRp1674
ag3
(g5
S'F\xb6`?'
tRp1675
ag3
(g5
S'J\x0ca?'
tRp1676
ag3
(g5
S'\x9a\x99`?'
tRp1677
ag3
(g5
S'F\xb6`?'
tRp1678
ag3
(g5
S'\xc1\xca`?'
tRp1679
ag3
(g5
S'\xb4\xc8`?'
tRp1680
ag3
(g5
S'#\xdb`?'
tRp1681
ag3
(g5
S'\x0c\x02a?'
tRp1682
ag3
(g5
S'\xc7Ka?'
tRp1683
ag3
(g5
S"'1a?"
tRp1684
ag3
(g5
S'b\x10a?'
tRp1685
ag3
(g5
S'\x9a\x99`?'
tRp1686
ag3
(g5
S'\xee|`?'
tRp1687
ag3
(g5
S'\x12\x83`?'
tRp1688
ag3
(g5
S'\xcb\xa1`?'
tRp1689
ag3
(g5
S'\x17\xd9`?'
tRp1690
ag3
(g5
S'\xc5 `?'
tRp1691
ag3
(g5
S'\xbaI`?'
tRp1692
ag3
(g5
S'\xb0r`?'
tRp1693
ag3
(g5
S'\x17\xd9_?'
tRp1694
ag3
(g5
S'b\x10a?'
tRp1695
ag3
(g5
S'\xdd$`?'
tRp1696
ag3
(g5
S'\x0e-a?'
tRp1697
ag3
(g5
S'\x8f\xc2`?'
tRp1698
ag3
(g5
S'\x0c\x02a?'
tRp1699
ag3
(g5
S'/\xdd`?'
tRp1700
ag3
(g5
S'\xf2\xd2a?'
tRp1701
ag3
(g5
S'\n\xd7`?'
tRp1702
ag3
(g5
S'=\na?'
tRp1703
ag3
(g5
S'-\xb2`?'
tRp1704
ag3
(g5
S'\xe1z`?'
tRp1705
ag3
(g5
S'q=a?'
tRp1706
ag3
(g5
S'\xd1"a?'
tRp1707
ag3
(g5
S'L7a?'
tRp1708
ag3
(g5
S'y\xe9a?'
tRp1709
ag3
(g5
S'D\x8b`?'
tRp1710
ag3
(g5
S'7\x89a?'
tRp1711
ag3
(g5
S'V\x0ea?'
tRp1712
ag3
(g5
S'\xb8\x1eb?'
tRp1713
ag3
(g5
S'H\xe1a?'
tRp1714
ag3
(g5
S'\x91\xed`?'
tRp1715
ag3
(g5
S'\x06\x81a?'
tRp1716
ag3
(g5
S'\xf2\xd2a?'
tRp1717
ag3
(g5
S'\xd1"a?'
tRp1718
ag3
(g5
S'5^a?'
tRp1719
ag3
(g5
S'\xc3\xf5a?'
tRp1720
ag3
(g5
S'\x1f\x85a?'
tRp1721
ag3
(g5
S'\xa0\x1aa?'
tRp1722
ag3
(g5
S'\xee|a?'
tRp1723
ag3
(g5
S'\x17\xd9a?'
tRp1724
ag3
(g5
S'\xc3\xf5a?'
tRp1725
ag3
(g5
S'u\x93a?'
tRp1726
ag3
(g5
S'F\xb6a?'
tRp1727
ag3
(g5
S';\xdfa?'
tRp1728
ag3
(g5
S'#\xdba?'
tRp1729
ag3
(g5
S'`\xe5a?'
tRp1730
ag3
(g5
S'%\x06b?'
tRp1731
ag3
(g5
S'\x93\x18b?'
tRp1732
ag3
(g5
S'\x1f\x85b?'
tRp1733
ag3
(g5
S'{\x14b?'
tRp1734
ag3
(g5
S'L7b?'
tRp1735
ag3
(g5
S'\xdd$b?'
tRp1736
ag3
(g5
S'q=b?'
tRp1737
ag3
(g5
S'\x12\x83b?'
tRp1738
ag3
(g5
S'shb?'
tRp1739
ag3
(g5
S'\xcf\xf7a?'
tRp1740
ag3
(g5
S'F\xb6b?'
tRp1741
ag3
(g5
S'D\x8bb?'
tRp1742
ag3
(g5
S'\xd7\xa3b?'
tRp1743
ag3
(g5
S'\xf8Sb?'
tRp1744
ag3
(g5
S'\x10Xb?'
tRp1745
ag3
(g5
S'}?b?'
tRp1746
ag3
(g5
S'\x0c\x02c?'
tRp1747
ag3
(g5
S'\x9a\x99b?'
tRp1748
ag3
(g5
S'\xee|b?'
tRp1749
ag3
(g5
S'\\\x8fb?'
tRp1750
ag3
(g5
S'\xc1\xcab?'
tRp1751
ag3
(g5
S'\xc1\xcab?'
tRp1752
ag3
(g5
S'\xe9&c?'
tRp1753
ag3
(g5
S'\xa0\x1ac?'
tRp1754
ag3
(g5
S'\x1b/c?'
tRp1755
ag3
(g5
S'\xdb\xf9b?'
tRp1756
ag3
(g5
S'\x00\x00c?'
tRp1757
ag3
(g5
S'\xf8Sc?'
tRp1758
ag3
(g5
S'\x93\x18c?'
tRp1759
ag3
(g5
S'\x1f\x85c?'
tRp1760
ag3
(g5
S'\xecQc?'
tRp1761
ag3
(g5
S'=\nc?'
tRp1762
ag3
(g5
S'\xdfOc?'
tRp1763
ag3
(g5
S'\xbaIc?'
tRp1764
ag3
(g5
S'\xcf\xf7b?'
tRp1765
ag3
(g5
S'\\\x8fc?'
tRp1766
ag3
(g5
S'\xb0rc?'
tRp1767
ag3
(g5
S'Nbc?'
tRp1768
ag3
(g5
S'D\x8bc?'
tRp1769
ag3
(g5
S'\xf8Sc?'
tRp1770
ag3
(g5
S'\x7fjc?'
tRp1771
ag3
(g5
S'\xd3Mc?'
tRp1772
ag3
(g5
S'q=c?'
tRp1773
ag3
(g5
S'\x10Xb?'
tRp1774
ag3
(g5
S'\xee|c?'
tRp1775
ag3
(g5
S'ffc?'
tRp1776
ag3
(g5
S'Nbc?'
tRp1777
ag3
(g5
S'\xe1zc?'
tRp1778
ag3
(g5
S'\xf8Sc?'
tRp1779
ag3
(g5
S'u\x93b?'
tRp1780
ag3
(g5
S'\xdb\xf9c?'
tRp1781
ag3
(g5
S'\x19\x04c?'
tRp1782
ag3
(g5
S'B`c?'
tRp1783
ag3
(g5
S'\xfe\xd4c?'
tRp1784
ag3
(g5
S'\xe7\xfbb?'
tRp1785
ag3
(g5
S'B`c?'
tRp1786
ag3
(g5
S'y\xe9c?'
tRp1787
ag3
(g5
S'+\x87c?'
tRp1788
ag3
(g5
S'y\xe9b?'
tRp1789
ag3
(g5
S'\xb4\xc8b?'
tRp1790
ag3
(g5
S'\xe9&c?'
tRp1791
ag3
(g5
S'\x9a\x99c?'
tRp1792
ag3
(g5
S'^\xbab?'
tRp1793
ag3
(g5
S'\xcd\xccb?'
tRp1794
ag3
(g5
S'\x87\x16c?'
tRp1795
ag3
(g5
S'=\nc?'
tRp1796
ag3
(g5
S'\xfc\xa9b?'
tRp1797
ag3
(g5
S'\x02+c?'
tRp1798
ag3
(g5
S'q=c?'
tRp1799
ag3
(g5
S'\x83\xc0c?'
tRp1800
ag3
(g5
S'9\xb4c?'
tRp1801
ag3
(g5
S'\x7fjc?'
tRp1802
ag3
(g5
S'w\xbec?'
tRp1803
ag3
(g5
S'\xbctc?'
tRp1804
ag3
(g5
S'T\xe3c?'
tRp1805
ag3
(g5
S'\x7fjc?'
tRp1806
ag3
(g5
S'J\x0cd?'
tRp1807
ag3
(g5
S'1\x08c?'
tRp1808
ag3
(g5
S'%\x06d?'
tRp1809
ag3
(g5
S'q=d?'
tRp1810
ag3
(g5
S'\x7fjd?'
tRp1811
ag3
(g5
S'\xfe\xd4c?'
tRp1812
ag3
(g5
S'\xd3Md?'
tRp1813
ag3
(g5
S'\xf6(d?'
tRp1814
ag3
(g5
S'\x0e-d?'
tRp1815
ag3
(g5
S'\xf6(d?'
tRp1816
ag3
(g5
S'\x10Xd?'
tRp1817
ag3
(g5
S'\xdfOd?'
tRp1818
ag3
(g5
S'\xbctd?'
tRp1819
ag3
(g5
S'\xee|d?'
tRp1820
ag3
(g5
S'Zdd?'
tRp1821
ag3
(g5
S'\xf8Sd?'
tRp1822
ag3
(g5
S'\x0e-d?'
tRp1823
ag3
(g5
S')\\d?'
tRp1824
ag3
(g5
S'\xa2Ed?'
tRp1825
ag3
(g5
S'B`d?'
tRp1826
ag3
(g5
S'\x98nd?'
tRp1827
ag3
(g5
S'\xf8Sd?'
tRp1828
ag3
(g5
S'\xcb\xa1d?'
tRp1829
ag3
(g5
S'\xc9vd?'
tRp1830
ag3
(g5
S'\xbe\x9fd?'
tRp1831
ag3
(g5
S'\x9a\x99d?'
tRp1832
ag3
(g5
S'33d?'
tRp1833
ag3
(g5
S'\xa4pd?'
tRp1834
ag3
(g5
S'\x1b/d?'
tRp1835
ag3
(g5
S'w\xbed?'
tRp1836
ag3
(g5
S'\x8f\xc2d?'
tRp1837
ag3
(g5
S'j\xbcd?'
tRp1838
ag3
(g5
S'\x02+e?'
tRp1839
ag3
(g5
S'-\xb2d?'
tRp1840
ag3
(g5
S'\xb0rd?'
tRp1841
ag3
(g5
S'D\x8bd?'
tRp1842
ag3
(g5
S'Zdd?'
tRp1843
ag3
(g5
S'ffd?'
tRp1844
ag3
(g5
S'\xe3\xa5d?'
tRp1845
ag3
(g5
S'\x19\x04e?'
tRp1846
ag3
(g5
S'u\x93d?'
tRp1847
ag3
(g5
S'\xa8\xc6d?'
tRp1848
ag3
(g5
S'\xd7\xa3d?'
tRp1849
ag3
(g5
S'\x85\xebd?'
tRp1850
ag3
(g5
S'\x81\x95d?'
tRp1851
ag3
(g5
S'\xa8\xc6d?'
tRp1852
ag3
(g5
S'7\x89d?'
tRp1853
ag3
(g5
S'F\xb6d?'
tRp1854
ag3
(g5
S'\xf4\xfdd?'
tRp1855
ag3
(g5
S'}?e?'
tRp1856
ag3
(g5
S'\xd3Me?'
tRp1857
ag3
(g5
S"'1e?"
tRp1858
ag3
(g5
S'\xf4\xfdd?'
tRp1859
ag3
(g5
S'}?e?'
tRp1860
ag3
(g5
S'\xf6(e?'
tRp1861
ag3
(g5
S'33e?'
tRp1862
ag3
(g5
S'q=e?'
tRp1863
ag3
(g5
S'\xa4pe?'
tRp1864
ag3
(g5
S'5^e?'
tRp1865
ag3
(g5
S'5^e?'
tRp1866
ag3
(g5
S'\xe1ze?'
tRp1867
ag3
(g5
S'\x7fje?'
tRp1868
ag3
(g5
S'\x7fje?'
tRp1869
ag3
(g5
S'\xbcte?'
tRp1870
ag3
(g5
S'F\xb6e?'
tRp1871
ag3
(g5
S'\xfa~e?'
tRp1872
ag3
(g5
S'\xf2\xd2e?'
tRp1873
ag3
(g5
S'\xcd\xcce?'
tRp1874
ag3
(g5
S'\x19\x04f?'
tRp1875
ag3
(g5
S'\xc3\xf5e?'
tRp1876
ag3
(g5
S'V\x0ef?'
tRp1877
ag3
(g5
S'\xc1\xcae?'
tRp1878
ag3
(g5
S'\x17\xd9e?'
tRp1879
ag3
(g5
S'R\xb8e?'
tRp1880
ag3
(g5
S'R\xb8e?'
tRp1881
ag3
(g5
S'o\x12f?'
tRp1882
ag3
(g5
S'\x1b/f?'
tRp1883
ag3
(g5
S'\xd1"f?'
tRp1884
ag3
(g5
S'\xe5\xd0e?'
tRp1885
ag3
(g5
S'V\x0ef?'
tRp1886
ag3
(g5
S'\x91\xede?'
tRp1887
ag3
(g5
S'\xdb\xf9e?'
tRp1888
ag3
(g5
S'\x1dZf?'
tRp1889
ag3
(g5
S'\x98nf?'
tRp1890
ag3
(g5
S'}?f?'
tRp1891
ag3
(g5
S'\xd3Mf?'
tRp1892
ag3
(g5
S'?5f?'
tRp1893
ag3
(g5
S'\xe9&f?'
tRp1894
ag3
(g5
S'\x8blf?'
tRp1895
ag3
(g5
S'\xbaIf?'
tRp1896
ag3
(g5
S'5^f?'
tRp1897
ag3
(g5
S'Zdf?'
tRp1898
ag3
(g5
S'\xdd$f?'
tRp1899
ag3
(g5
S'\xc5 f?'
tRp1900
ag3
(g5
S'5^f?'
tRp1901
ag3
(g5
S'\x02+f?'
tRp1902
ag3
(g5
S'\x1b/f?'
tRp1903
ag3
(g5
S'33f?'
tRp1904
ag3
(g5
S'?5f?'
tRp1905
ag3
(g5
S'fff?'
tRp1906
ag3
(g5
S'V\x0ef?'
tRp1907
ag3
(g5
S'#\xdbe?'
tRp1908
ag3
(g5
S'\xc3\xf5e?'
tRp1909
ag3
(g5
S'\xa8\xc6e?'
tRp1910
ag3
(g5
S'\x9e\xefe?'
tRp1911
ag3
(g5
S';\xdfe?'
tRp1912
ag3
(g5
S'\xf6(f?'
tRp1913
ag3
(g5
S'X9f?'
tRp1914
ag3
(g5
S'\xcd\xcce?'
tRp1915
ag3
(g5
S"'1f?"
tRp1916
ag3
(g5
S'\xa2Ef?'
tRp1917
ag3
(g5
S'}?f?'
tRp1918
ag3
(g5
S'\x9e\xefe?'
tRp1919
ag3
(g5
S'\x0c\x02f?'
tRp1920
ag3
(g5
S'#\xdbe?'
tRp1921
ag3
(g5
S'd;f?'
tRp1922
ag3
(g5
S'\xc7Kf?'
tRp1923
ag3
(g5
S'Zdf?'
tRp1924
ag3
(g5
S"'1f?"
tRp1925
ag3
(g5
S'}?f?'
tRp1926
ag3
(g5
S'\xb0rf?'
tRp1927
ag3
(g5
S'\xc5 f?'
tRp1928
ag3
(g5
S'P\x8df?'
tRp1929
ag3
(g5
S'\x06\x81f?'
tRp1930
ag3
(g5
S'\x8d\x97f?'
tRp1931
ag3
(g5
S'^\xbaf?'
tRp1932
ag3
(g5
S'shf?'
tRp1933
ag3
(g5
S'\x9a\x99f?'
tRp1934
ag3
(g5
S'\x7fjf?'
tRp1935
ag3
(g5
S'\xfa~f?'
tRp1936
ag3
(g5
S'\x93\x18f?'
tRp1937
ag3
(g5
S'33f?'
tRp1938
ag3
(g5
S'\xfc\xa9f?'
tRp1939
ag3
(g5
S'\x98nf?'
tRp1940
ag3
(g5
S'\xc7Kf?'
tRp1941
ag3
(g5
S'\xd7\xa3f?'
tRp1942
ag3
(g5
S'\x81\x95f?'
tRp1943
ag3
(g5
S'fff?'
tRp1944
ag3
(g5
S'h\x91f?'
tRp1945
ag3
(g5
S'\x1dZf?'
tRp1946
ag3
(g5
S'\x98nf?'
tRp1947
ag3
(g5
S'u\x93f?'
tRp1948
ag3
(g5
S'\x06\x81f?'
tRp1949
ag3
(g5
S'-\xb2f?'
tRp1950
ag3
(g5
S'\xb2\x9df?'
tRp1951
ag3
(g5
S'R\xb8f?'
tRp1952
ag3
(g5
S'\x83\xc0f?'
tRp1953
ag3
(g5
S'\xd7\xa3f?'
tRp1954
ag3
(g5
S'\xc9vf?'
tRp1955
ag3
(g5
S'\x06\x81f?'
tRp1956
ag3
(g5
S'\\\x8ff?'
tRp1957
ag3
(g5
S'B`f?'
tRp1958
ag3
(g5
S'\xf0\xa7f?'
tRp1959
ag3
(g5
S'Zdf?'
tRp1960
ag3
(g5
S'\x8d\x97f?'
tRp1961
ag3
(g5
S'u\x93f?'
tRp1962
ag3
(g5
S'^\xbaf?'
tRp1963
ag3
(g5
S'\xfc\xa9f?'
tRp1964
ag3
(g5
S'\xbaIf?'
tRp1965
ag3
(g5
S'+\x87f?'
tRp1966
ag3
(g5
S'\xe3\xa5f?'
tRp1967
ag3
(g5
S'shf?'
tRp1968
ag3
(g5
S'\x8blf?'
tRp1969
ag3
(g5
S'\x9a\x99f?'
tRp1970
ag3
(g5
S'R\xb8f?'
tRp1971
ag3
(g5
S'T\xe3f?'
tRp1972
ag3
(g5
S'j\xbcf?'
tRp1973
ag3
(g5
S'\xf4\xfdf?'
tRp1974
ag3
(g5
S'h\x91f?'
tRp1975
ag3
(g5
S'\xe7\xfbf?'
tRp1976
ag3
(g5
S'\x8f\xc2f?'
tRp1977
ag3
(g5
S'\xc1\xcaf?'
tRp1978
ag3
(g5
S'j\xbcf?'
tRp1979
ag3
(g5
S'\x9e\xeff?'
tRp1980
ag3
(g5
S'\xb4\xc8f?'
tRp1981
ag3
(g5
S'\xe5\xd0f?'
tRp1982
ag3
(g5
S'F\xb6f?'
tRp1983
ag3
(g5
S'w\xbef?'
tRp1984
ag3
(g5
S'1\x08g?'
tRp1985
ag3
(g5
S'`\xe5f?'
tRp1986
ag3
(g5
S'\xb6\xf3f?'
tRp1987
ag3
(g5
S'\x1b/g?'
tRp1988
ag3
(g5
S'\x19\x04g?'
tRp1989
ag3
(g5
S')\\g?'
tRp1990
ag3
(g5
S'X9g?'
tRp1991
ag3
(g5
S'33g?'
tRp1992
ag3
(g5
S'shg?'
tRp1993
ag3
(g5
S'Zdg?'
tRp1994
ag3
(g5
S'\x06\x81g?'
tRp1995
ag3
(g5
S'shg?'
tRp1996
ag3
(g5
S'+\x87g?'
tRp1997
ag3
(g5
S'\xbe\x9fg?'
tRp1998
ag3
(g5
S'\x8blg?'
tRp1999
ag3
(g5
S'P\x8dg?'
tRp2000
ag3
(g5
S'\x8blg?'
tRp2001
ag3
(g5
S'shg?'
tRp2002
ag3
(g5
S'\xc7Kg?'
tRp2003
ag3
(g5
S'5^g?'
tRp2004
ag3
(g5
S'+\x87g?'
tRp2005
ag3
(g5
S'd;g?'
tRp2006
aa(lp2007
g3
(g5
S'pP\x0c@'
tRp2008
ag3
(g5
S'D\x15\xc8?'
tRp2009
ag3
(g5
S'\xc6:\xb2?'
tRp2010
ag3
(g5
S'l\x1b\xa5?'
tRp2011
ag3
(g5
S'Z\x7f\x9c?'
tRp2012
ag3
(g5
S'\xec\x94\x96?'
tRp2013
ag3
(g5
S'\xce8\x92?'
tRp2014
ag3
(g5
S'\xe8\xe3\x8e?'
tRp2015
ag3
(g5
S'|?\x8c?'
tRp2016
ag3
(g5
S'\x8b\x05\x8a?'
tRp2017
ag3
(g5
S'\xe7#\x88?'
tRp2018
ag3
(g5
S'f\x95\x86?'
tRp2019
ag3
(g5
S'\xb9A\x85?'
tRp2020
ag3
(g5
S'O$\x84?'
tRp2021
ag3
(g5
S'\xf6(\x83?'
tRp2022
ag3
(g5
S'\x94K\x82?'
tRp2023
ag3
(g5
S'\x85\x8e\x81?'
tRp2024
ag3
(g5
S'\xa4\xe5\x80?'
tRp2025
ag3
(g5
S'HQ\x80?'
tRp2026
ag3
(g5
S'R\xa3\x7f?'
tRp2027
ag3
(g5
S'\xa7\xb7~?'
tRp2028
ag3
(g5
S'\xa4\xe7}?'
tRp2029
ag3
(g5
S'\xea\x1f}?'
tRp2030
ag3
(g5
S'hu|?'
tRp2031
ag3
(g5
S'\xdc\xd5{?'
tRp2032
ag3
(g5
S'\xbb@{?'
tRp2033
ag3
(g5
S'!\xb3z?'
tRp2034
ag3
(g5
S'\xd2.z?'
tRp2035
ag3
(g5
S'\xd7\xaey?'
tRp2036
ag3
(g5
S'\x8b4y?'
tRp2037
ag3
(g5
S'\xd3\xb2x?'
tRp2038
ag3
(g5
S'\xcb=x?'
tRp2039
ag3
(g5
S'\xe0\xd5w?'
tRp2040
ag3
(g5
S'\xfb`w?'
tRp2041
ag3
(g5
S'l\xfav?'
tRp2042
ag3
(g5
S'\xee\x8cv?'
tRp2043
ag3
(g5
S'\xec/v?'
tRp2044
ag3
(g5
S'\xd9\xcdu?'
tRp2045
ag3
(g5
S'\xa8ku?'
tRp2046
ag3
(g5
S'\xc7\x0cu?'
tRp2047
ag3
(g5
S'\x03\xaat?'
tRp2048
ag3
(g5
S'dMt?'
tRp2049
ag3
(g5
S'\xf5\xe5s?'
tRp2050
ag3
(g5
S'z\x89s?'
tRp2051
ag3
(g5
S'\xa4-s?'
tRp2052
ag3
(g5
S'\x18\xc4r?'
tRp2053
ag3
(g5
S'H^r?'
tRp2054
ag3
(g5
S'{\xf8q?'
tRp2055
ag3
(g5
S'\x1f\x94q?'
tRp2056
ag3
(g5
S'\xda)q?'
tRp2057
ag3
(g5
S'\xe1\xbbp?'
tRp2058
ag3
(g5
S'\x00Vp?'
tRp2059
ag3
(g5
S'\xa0\xeao?'
tRp2060
ag3
(g5
S'!\x80o?'
tRp2061
ag3
(g5
S'\xa4\to?'
tRp2062
ag3
(g5
S'm\x8cn?'
tRp2063
ag3
(g5
S'\x13\x0fn?'
tRp2064
ag3
(g5
S'\x98\xa4m?'
tRp2065
ag3
(g5
S'\xf0\x18m?'
tRp2066
ag3
(g5
S'\x1c\xa3l?'
tRp2067
ag3
(g5
S't\x11l?'
tRp2068
ag3
(g5
S'\x83xk?'
tRp2069
ag3
(g5
S'\x85\xefj?'
tRp2070
ag3
(g5
S'\x8cbj?'
tRp2071
ag3
(g5
S'\xdd\xcci?'
tRp2072
ag3
(g5
S'\x9d<i?'
tRp2073
ag3
(g5
S'\x12\xa0h?'
tRp2074
ag3
(g5
S'\xc1\x06h?'
tRp2075
ag3
(g5
S'\xf6Xg?'
tRp2076
ag3
(g5
S'\xb6\xa6f?'
tRp2077
ag3
(g5
S'_\xf9e?'
tRp2078
ag3
(g5
S'?8e?'
tRp2079
ag3
(g5
S'\xa0\x86d?'
tRp2080
ag3
(g5
S'\xf2\xb7c?'
tRp2081
ag3
(g5
S'\xa0\xedb?'
tRp2082
ag3
(g5
S'\xcf.b?'
tRp2083
ag3
(g5
S'\xe4_a?'
tRp2084
ag3
(g5
S'|\x95`?'
tRp2085
ag3
(g5
S'\x87\xbd_?'
tRp2086
ag3
(g5
S'\xce\xe6^?'
tRp2087
ag3
(g5
S'\x17\x03^?'
tRp2088
ag3
(g5
S'\xf9#]?'
tRp2089
ag3
(g5
S'+=\\?'
tRp2090
ag3
(g5
S'\x08S[?'
tRp2091
ag3
(g5
S"'oZ?"
tRp2092
ag3
(g5
S',uY?'
tRp2093
ag3
(g5
S'XuX?'
tRp2094
ag3
(g5
S'!|W?'
tRp2095
ag3
(g5
S'\xb4xV?'
tRp2096
ag3
(g5
S'^dU?'
tRp2097
ag3
(g5
S'\xbcWT?'
tRp2098
ag3
(g5
S'\x0c:S?'
tRp2099
ag3
(g5
S'B\x0eR?'
tRp2100
ag3
(g5
S'\xed\xddP?'
tRp2101
ag3
(g5
S'\xec\xa5O?'
tRp2102
ag3
(g5
S'\x1btN?'
tRp2103
ag3
(g5
S'\xd58M?'
tRp2104
ag3
(g5
S'{\xf7K?'
tRp2105
ag3
(g5
S'N\xacJ?'
tRp2106
ag3
(g5
S'dqI?'
tRp2107
ag3
(g5
S'\x04=H?'
tRp2108
ag3
(g5
S'\xae\xd9F?'
tRp2109
ag3
(g5
S'\xe7\x9cE?'
tRp2110
ag3
(g5
S'\xa03D?'
tRp2111
ag3
(g5
S'c\xe6B?'
tRp2112
ag3
(g5
S'\xa5\x99A?'
tRp2113
ag3
(g5
S'1>@?'
tRp2114
ag3
(g5
S'J\x05??'
tRp2115
ag3
(g5
S'\x1f\xaa=?'
tRp2116
ag3
(g5
S'\x93_<?'
tRp2117
ag3
(g5
S'w\x1c;?'
tRp2118
ag3
(g5
S'\xc1\xe69?'
tRp2119
ag3
(g5
S'\xcf\x908?'
tRp2120
ag3
(g5
S'O{7?'
tRp2121
ag3
(g5
S'\xf0\x1a6?'
tRp2122
ag3
(g5
S'Z\xef4?'
tRp2123
ag3
(g5
S'\xff\x993?'
tRp2124
ag3
(g5
S'\x9am2?'
tRp2125
ag3
(g5
S'\x7f21?'
tRp2126
ag3
(g5
S'\xb6\xe9/?'
tRp2127
ag3
(g5
S'\xb8\xc7.?'
tRp2128
ag3
(g5
S'\xee\xb5-?'
tRp2129
ag3
(g5
S'\xfd\xa0,?'
tRp2130
ag3
(g5
S'2\x90+?'
tRp2131
ag3
(g5
S'Tt*?'
tRp2132
ag3
(g5
S'Br)?'
tRp2133
ag3
(g5
S'\xd4Z(?'
tRp2134
ag3
(g5
S"mY'?"
tRp2135
ag3
(g5
S'\x89k&?'
tRp2136
ag3
(g5
S'B[%?'
tRp2137
ag3
(g5
S'Mu$?'
tRp2138
ag3
(g5
S'\xd6\x87#?'
tRp2139
ag3
(g5
S'\xfe\x91"?'
tRp2140
ag3
(g5
S'\xc8p!?'
tRp2141
ag3
(g5
S'gw ?'
tRp2142
ag3
(g5
S'\x9a\x83\x1f?'
tRp2143
ag3
(g5
S'0\xa2\x1e?'
tRp2144
ag3
(g5
S'\x96\xa9\x1d?'
tRp2145
ag3
(g5
S'\x9a\xae\x1c?'
tRp2146
ag3
(g5
S'\x98\xb8\x1b?'
tRp2147
ag3
(g5
S'\x97\xb3\x1a?'
tRp2148
ag3
(g5
S"'\xa1\x19?"
tRp2149
ag3
(g5
S'\xdc\xa6\x18?'
tRp2150
ag3
(g5
S'\xe7\x92\x17?'
tRp2151
ag3
(g5
S'\x9e\x86\x16?'
tRp2152
ag3
(g5
S'\x1f\x8d\x15?'
tRp2153
ag3
(g5
S'\x9eZ\x14?'
tRp2154
ag3
(g5
S'\xeaI\x13?'
tRp2155
ag3
(g5
S'F^\x12?'
tRp2156
ag3
(g5
S'\xf8]\x11?'
tRp2157
ag3
(g5
S'\x05K\x10?'
tRp2158
ag3
(g5
S'\x16`\x0f?'
tRp2159
ag3
(g5
S'\x85X\x0e?'
tRp2160
ag3
(g5
S'\xa6_\r?'
tRp2161
ag3
(g5
S'\x8aq\x0c?'
tRp2162
ag3
(g5
S'\xd7\x8d\x0b?'
tRp2163
ag3
(g5
S'\xad\x80\n?'
tRp2164
ag3
(g5
S'q\xa8\t?'
tRp2165
ag3
(g5
S'\xf4\xe6\x08?'
tRp2166
ag3
(g5
S';\x01\x08?'
tRp2167
ag3
(g5
S'\x9c5\x07?'
tRp2168
ag3
(g5
S'\xd5c\x06?'
tRp2169
ag3
(g5
S'\xf5\x9b\x05?'
tRp2170
ag3
(g5
S'\x86\xca\x04?'
tRp2171
ag3
(g5
S'\x0e\xfd\x03?'
tRp2172
ag3
(g5
S'\xe7@\x03?'
tRp2173
ag3
(g5
S'\xf4z\x02?'
tRp2174
ag3
(g5
S'\x02\xad\x01?'
tRp2175
ag3
(g5
S'\xcf\xe0\x00?'
tRp2176
ag3
(g5
S'\x7f\x11\x00?'
tRp2177
ag3
(g5
S'\xdf\xe8\xfe>'
tRp2178
ag3
(g5
S'\xf0v\xfd>'
tRp2179
ag3
(g5
S'\xb0/\xfc>'
tRp2180
ag3
(g5
S'3\x99\xfa>'
tRp2181
ag3
(g5
S'\xae\x80\xf9>'
tRp2182
ag3
(g5
S'/\x11\xf8>'
tRp2183
ag3
(g5
S'\xcf\xbf\xf6>'
tRp2184
ag3
(g5
S'l;\xf5>'
tRp2185
ag3
(g5
S'R\x03\xf4>'
tRp2186
ag3
(g5
S'\\\x8b\xf2>'
tRp2187
ag3
(g5
S'R"\xf1>'
tRp2188
ag3
(g5
S'1\xc5\xef>'
tRp2189
ag3
(g5
S'\x1d\xcd\xee>'
tRp2190
ag3
(g5
S'+K\xed>'
tRp2191
ag3
(g5
S'\xef%\xec>'
tRp2192
ag3
(g5
S'\x04\x15\xeb>'
tRp2193
ag3
(g5
S'-\xb8\xe9>'
tRp2194
ag3
(g5
S'\xf5\xb5\xe8>'
tRp2195
ag3
(g5
S'\x0c\x94\xe7>'
tRp2196
ag3
(g5
S'\x9e\x88\xe6>'
tRp2197
ag3
(g5
S'\xfa[\xe5>'
tRp2198
ag3
(g5
S'CB\xe4>'
tRp2199
ag3
(g5
S'F\x1e\xe3>'
tRp2200
ag3
(g5
S'9I\xe2>'
tRp2201
ag3
(g5
S'\x90H\xe1>'
tRp2202
ag3
(g5
S'\xa41\xe0>'
tRp2203
ag3
(g5
S'\xdb\x13\xdf>'
tRp2204
ag3
(g5
S'\xd3/\xde>'
tRp2205
ag3
(g5
S'\xee\x1e\xdd>'
tRp2206
ag3
(g5
S"\xb4'\xdc>"
tRp2207
ag3
(g5
S'C_\xdb>'
tRp2208
ag3
(g5
S'\x7f<\xda>'
tRp2209
ag3
(g5
S'0*\xd9>'
tRp2210
ag3
(g5
S'\x87Z\xd8>'
tRp2211
ag3
(g5
S'\xdf\xb3\xd7>'
tRp2212
ag3
(g5
S'\xdf\xc1\xd6>'
tRp2213
ag3
(g5
S'=\xc6\xd5>'
tRp2214
ag3
(g5
S"\x8d'\xd5>"
tRp2215
ag3
(g5
S'\xfe \xd4>'
tRp2216
ag3
(g5
S'\xf0Q\xd3>'
tRp2217
ag3
(g5
S'qI\xd2>'
tRp2218
ag3
(g5
S'\xf7\x8e\xd1>'
tRp2219
ag3
(g5
S'%\xda\xd0>'
tRp2220
ag3
(g5
S'! \xd0>'
tRp2221
ag3
(g5
S'\xcb,\xcf>'
tRp2222
ag3
(g5
S'5\xaa\xce>'
tRp2223
ag3
(g5
S'\xb6\x99\xcd>'
tRp2224
ag3
(g5
S'\xf8\xe7\xcc>'
tRp2225
ag3
(g5
S'w;\xcc>'
tRp2226
ag3
(g5
S']^\xcb>'
tRp2227
ag3
(g5
S'\x10t\xca>'
tRp2228
ag3
(g5
S'q\xe3\xc9>'
tRp2229
ag3
(g5
S'\xbd\x16\xc9>'
tRp2230
ag3
(g5
S'\xb90\xc8>'
tRp2231
ag3
(g5
S'\xb1\x9a\xc7>'
tRp2232
ag3
(g5
S'\xb9\xbe\xc6>'
tRp2233
ag3
(g5
S'\xa6.\xc6>'
tRp2234
ag3
(g5
S'\xdfJ\xc5>'
tRp2235
ag3
(g5
S'\xd6\xc8\xc4>'
tRp2236
ag3
(g5
S'\xe3a\xc4>'
tRp2237
ag3
(g5
S'g\\\xc3>'
tRp2238
ag3
(g5
S'}\x96\xc2>'
tRp2239
ag3
(g5
S'\xbc\xeb\xc1>'
tRp2240
ag3
(g5
S'\x02k\xc1>'
tRp2241
ag3
(g5
S'\xc7\x9d\xc0>'
tRp2242
ag3
(g5
S'\x86*\xc0>'
tRp2243
ag3
(g5
S'4]\xbf>'
tRp2244
ag3
(g5
S'\x83\xc9\xbe>'
tRp2245
ag3
(g5
S'nK\xbe>'
tRp2246
ag3
(g5
S'\x8e\xbe\xbd>'
tRp2247
ag3
(g5
S'\x9e\t\xbd>'
tRp2248
ag3
(g5
S'y\x96\xbc>'
tRp2249
ag3
(g5
S'\x96\x02\xbc>'
tRp2250
ag3
(g5
S"\xd3'\xbb>"
tRp2251
ag3
(g5
S'\x19\xcd\xba>'
tRp2252
ag3
(g5
S'\xe3,\xba>'
tRp2253
ag3
(g5
S'^\x86\xb9>'
tRp2254
ag3
(g5
S'%H\xb9>'
tRp2255
ag3
(g5
S'\t\xa4\xb8>'
tRp2256
ag3
(g5
S"'\xde\xb7>"
tRp2257
ag3
(g5
S'Z\x13\xb7>'
tRp2258
ag3
(g5
S'\xd0\xc8\xb6>'
tRp2259
ag3
(g5
S'\xe7-\xb6>'
tRp2260
ag3
(g5
S'\xbf}\xb5>'
tRp2261
ag3
(g5
S'\xc5\xfa\xb4>'
tRp2262
ag3
(g5
S'\x1ae\xb4>'
tRp2263
ag3
(g5
S'\xad\x05\xb4>'
tRp2264
ag3
(g5
S'\x7fa\xb3>'
tRp2265
ag3
(g5
S'7\xc1\xb2>'
tRp2266
ag3
(g5
S'FX\xb2>'
tRp2267
ag3
(g5
S'8\x9a\xb1>'
tRp2268
ag3
(g5
S'\xfe\x06\xb1>'
tRp2269
ag3
(g5
S'\xdb\xc6\xb0>'
tRp2270
ag3
(g5
S'=6\xb0>'
tRp2271
ag3
(g5
S'j\xcd\xaf>'
tRp2272
ag3
(g5
S'\xd1\x9d\xaf>'
tRp2273
ag3
(g5
S'\xc2\xca\xae>'
tRp2274
ag3
(g5
S'9+\xae>'
tRp2275
ag3
(g5
S'\xd0\xd5\xad>'
tRp2276
ag3
(g5
S'-\x83\xad>'
tRp2277
ag3
(g5
S'\xd10\xad>'
tRp2278
ag3
(g5
S'\x11\xb4\xac>'
tRp2279
ag3
(g5
S'\xd7\x1c\xac>'
tRp2280
ag3
(g5
S'\xf2\xbb\xab>'
tRp2281
ag3
(g5
S'\x1c\x17\xab>'
tRp2282
ag3
(g5
S'\x16\x8d\xaa>'
tRp2283
ag3
(g5
S'\xa0\xf6\xa9>'
tRp2284
ag3
(g5
S'\xbc\xbd\xa9>'
tRp2285
ag3
(g5
S'\x1a\x92\xa9>'
tRp2286
ag3
(g5
S'\x9f\x0f\xa9>'
tRp2287
ag3
(g5
S'\xc7\xa0\xa8>'
tRp2288
ag3
(g5
S'\xb6\t\xa8>'
tRp2289
ag3
(g5
S'5\xea\xa7>'
tRp2290
ag3
(g5
S'\x11z\xa7>'
tRp2291
ag3
(g5
S'Q\x0e\xa7>'
tRp2292
ag3
(g5
S'\xbc\xa9\xa6>'
tRp2293
ag3
(g5
S'4\xe8\xa5>'
tRp2294
ag3
(g5
S'\xe9\x0f\xa6>'
tRp2295
ag3
(g5
S'\xack\xa5>'
tRp2296
ag3
(g5
S'\x8c\xf1\xa4>'
tRp2297
ag3
(g5
S'r\xbf\xa4>'
tRp2298
ag3
(g5
S'o\x02\xa4>'
tRp2299
ag3
(g5
S'\x82\xb3\xa3>'
tRp2300
ag3
(g5
S'\xc1\x7f\xa3>'
tRp2301
ag3
(g5
S'P\xf1\xa2>'
tRp2302
ag3
(g5
S'\xb8\xbd\xa2>'
tRp2303
ag3
(g5
S')\x89\xa2>'
tRp2304
ag3
(g5
S'XM\xa2>'
tRp2305
ag3
(g5
S'\xf5\xb6\xa1>'
tRp2306
ag3
(g5
S'`\x99\xa1>'
tRp2307
ag3
(g5
S'h\xf1\xa0>'
tRp2308
ag3
(g5
S'\xe2\xd6\xa0>'
tRp2309
ag3
(g5
S'\xd74\xa0>'
tRp2310
ag3
(g5
S'\xa0\xce\x9f>'
tRp2311
ag3
(g5
S'\x03f\x9f>'
tRp2312
ag3
(g5
S'&A\x9f>'
tRp2313
ag3
(g5
S'Z\xfe\x9e>'
tRp2314
ag3
(g5
S'\xa6\xf1\x9e>'
tRp2315
ag3
(g5
S'yc\x9e>'
tRp2316
ag3
(g5
S'\x05\xde\x9d>'
tRp2317
ag3
(g5
S'\xa4\x8e\x9d>'
tRp2318
ag3
(g5
S'{\xf9\x9c>'
tRp2319
ag3
(g5
S'\x00\xac\x9c>'
tRp2320
ag3
(g5
S'\xbat\x9c>'
tRp2321
ag3
(g5
S'\xb58\x9c>'
tRp2322
ag3
(g5
S'\xe7\xc6\x9b>'
tRp2323
ag3
(g5
S"'B\x9b>"
tRp2324
ag3
(g5
S'\x06)\x9b>'
tRp2325
ag3
(g5
S'\xcb\x8c\x9a>'
tRp2326
ag3
(g5
S'\xf8W\x9a>'
tRp2327
ag3
(g5
S'\xa8:\x9a>'
tRp2328
ag3
(g5
S'\xee\xd2\x99>'
tRp2329
ag3
(g5
S'\xdbs\x99>'
tRp2330
ag3
(g5
S'f(\x99>'
tRp2331
ag3
(g5
S'f\xd5\x98>'
tRp2332
ag3
(g5
S'X\xb2\x98>'
tRp2333
ag3
(g5
S'\xc8\x13\x98>'
tRp2334
ag3
(g5
S'+\xeb\x97>'
tRp2335
ag3
(g5
S'\x9e\xa0\x97>'
tRp2336
ag3
(g5
S'\xe1a\x97>'
tRp2337
ag3
(g5
S'\x83l\x97>'
tRp2338
ag3
(g5
S'\x99\xfe\x96>'
tRp2339
ag3
(g5
S'\xdd\xc9\x96>'
tRp2340
ag3
(g5
S'}\x86\x96>'
tRp2341
ag3
(g5
S'~<\x96>'
tRp2342
ag3
(g5
S'\x81\xba\x95>'
tRp2343
ag3
(g5
S'h\xbf\x95>'
tRp2344
ag3
(g5
S'-\xa1\x95>'
tRp2345
ag3
(g5
S'\xa6\\\x95>'
tRp2346
ag3
(g5
S'l4\x95>'
tRp2347
ag3
(g5
S'\xd7\xf4\x94>'
tRp2348
ag3
(g5
S'7\x92\x94>'
tRp2349
ag3
(g5
S'\xeeH\x94>'
tRp2350
ag3
(g5
S'\x94L\x94>'
tRp2351
ag3
(g5
S"\x14'\x94>"
tRp2352
ag3
(g5
S'qK\x93>'
tRp2353
ag3
(g5
S'\x87e\x93>'
tRp2354
ag3
(g5
S'9*\x93>'
tRp2355
ag3
(g5
S'\xac\xc5\x92>'
tRp2356
ag3
(g5
S'\x0c\xba\x92>'
tRp2357
ag3
(g5
S'\x98x\x92>'
tRp2358
ag3
(g5
S"\xbd'\x92>"
tRp2359
ag3
(g5
S'\x91\x03\x92>'
tRp2360
ag3
(g5
S'\xe5\xc3\x91>'
tRp2361
ag3
(g5
S'^\xa7\x91>'
tRp2362
ag3
(g5
S'\xa8E\x91>'
tRp2363
ag3
(g5
S'\xf7\xf7\x90>'
tRp2364
ag3
(g5
S'}\xd1\x90>'
tRp2365
ag3
(g5
S'B\xb7\x90>'
tRp2366
ag3
(g5
S'\xd1\xa8\x90>'
tRp2367
ag3
(g5
S'\x06:\x90>'
tRp2368
ag3
(g5
S'\xbc<\x90>'
tRp2369
ag3
(g5
S'G\xfa\x8f>'
tRp2370
ag3
(g5
S'i\xa3\x8f>'
tRp2371
ag3
(g5
S']\x92\x8f>'
tRp2372
ag3
(g5
S'FD\x8f>'
tRp2373
ag3
(g5
S'HS\x8f>'
tRp2374
ag3
(g5
S'{\xf0\x8e>'
tRp2375
ag3
(g5
S'\xba\x88\x8e>'
tRp2376
ag3
(g5
S'\x1d\x11\x8e>'
tRp2377
ag3
(g5
S'\x85\xea\x8d>'
tRp2378
ag3
(g5
S'\xc7\xca\x8d>'
tRp2379
ag3
(g5
S'\n\xc4\x8d>'
tRp2380
ag3
(g5
S'o4\x8d>'
tRp2381
ag3
(g5
S'\x19\x15\x8d>'
tRp2382
ag3
(g5
S'\xec\xf8\x8c>'
tRp2383
ag3
(g5
S'4\xda\x8c>'
tRp2384
ag3
(g5
S'X\x8b\x8c>'
tRp2385
ag3
(g5
S'\x14E\x8c>'
tRp2386
ag3
(g5
S'q!\x8c>'
tRp2387
ag3
(g5
S'\xdf\xdb\x8b>'
tRp2388
ag3
(g5
S"'\xe4\x8b>"
tRp2389
ag3
(g5
S'\x1b\x94\x8b>'
tRp2390
ag3
(g5
S'\x9ca\x8b>'
tRp2391
ag3
(g5
S'H\x15\x8b>'
tRp2392
ag3
(g5
S'E\xc5\x8a>'
tRp2393
ag3
(g5
S'\t\x96\x8a>'
tRp2394
ag3
(g5
S'Th\x8a>'
tRp2395
ag3
(g5
S'\x049\x8a>'
tRp2396
ag3
(g5
S'\x10\xed\x89>'
tRp2397
ag3
(g5
S'\xb1\xbc\x89>'
tRp2398
ag3
(g5
S'\x9a\x83\x89>'
tRp2399
ag3
(g5
S'\xfe\xa4\x89>'
tRp2400
ag3
(g5
S'dO\x89>'
tRp2401
ag3
(g5
S'{1\x89>'
tRp2402
ag3
(g5
S'\xfe\x03\x89>'
tRp2403
ag3
(g5
S'\xd9\x9d\x88>'
tRp2404
ag3
(g5
S'\xc1z\x88>'
tRp2405
ag3
(g5
S'\x83D\x88>'
tRp2406
ag3
(g5
S'1\xf4\x87>'
tRp2407
ag3
(g5
S'\xaa\xd7\x87>'
tRp2408
ag3
(g5
S'\x1e\x83\x87>'
tRp2409
ag3
(g5
S'il\x87>'
tRp2410
ag3
(g5
S'\x81M\x87>'
tRp2411
ag3
(g5
S'\xa3\xe7\x86>'
tRp2412
ag3
(g5
S'%\xc3\x86>'
tRp2413
ag3
(g5
S'\xbe\xc1\x86>'
tRp2414
ag3
(g5
S'\xecr\x86>'
tRp2415
ag3
(g5
S'\xcdD\x86>'
tRp2416
ag3
(g5
S'\x8b\x02\x86>'
tRp2417
ag3
(g5
S'D\xc9\x85>'
tRp2418
ag3
(g5
S'\x04\xbc\x85>'
tRp2419
ag3
(g5
S'X\x80\x85>'
tRp2420
ag3
(g5
S'}B\x85>'
tRp2421
ag3
(g5
S'\x88\x01\x85>'
tRp2422
ag3
(g5
S'\x0e\xb4\x84>'
tRp2423
ag3
(g5
S'\xaa\x97\x84>'
tRp2424
ag3
(g5
S'\xf48\x84>'
tRp2425
ag3
(g5
S'X\x00\x84>'
tRp2426
ag3
(g5
S'\xff\xce\x83>'
tRp2427
ag3
(g5
S'\x19\xf1\x83>'
tRp2428
ag3
(g5
S'\xbe}\x83>'
tRp2429
ag3
(g5
S'\xcd|\x83>'
tRp2430
ag3
(g5
S'E;\x83>'
tRp2431
ag3
(g5
S')3\x83>'
tRp2432
ag3
(g5
S'\x15\x11\x83>'
tRp2433
ag3
(g5
S'D\xb7\x82>'
tRp2434
ag3
(g5
S'n\xe2\x82>'
tRp2435
ag3
(g5
S'\xdf\xa7\x82>'
tRp2436
ag3
(g5
S'\x0c\x86\x82>'
tRp2437
ag3
(g5
S'Mi\x82>'
tRp2438
ag3
(g5
S'a8\x82>'
tRp2439
ag3
(g5
S'\x9b\x07\x82>'
tRp2440
ag3
(g5
S'8\xac\x81>'
tRp2441
ag3
(g5
S'C\x8c\x81>'
tRp2442
ag3
(g5
S'\xe9|\x81>'
tRp2443
ag3
(g5
S'\xdf$\x81>'
tRp2444
ag3
(g5
S'\x92\xc7\x80>'
tRp2445
ag3
(g5
S'\xb3\xa6\x80>'
tRp2446
ag3
(g5
S'Z.\x80>'
tRp2447
ag3
(g5
S'\xb7K\x80>'
tRp2448
ag3
(g5
S'\xd7\xcc\x7f>'
tRp2449
ag3
(g5
S'4K\x7f>'
tRp2450
ag3
(g5
S'\xf2\xe1~>'
tRp2451
ag3
(g5
S'\xdf\xe6~>'
tRp2452
ag3
(g5
S'\xb0\x8f~>'
tRp2453
ag3
(g5
S'\x93\xe7}>'
tRp2454
ag3
(g5
S'\x08G}>'
tRp2455
ag3
(g5
S'IJ}>'
tRp2456
ag3
(g5
S'T0}>'
tRp2457
ag3
(g5
S'j7|>'
tRp2458
ag3
(g5
S'\x13\\|>'
tRp2459
ag3
(g5
S'\xed\x9f{>'
tRp2460
ag3
(g5
S'\x17\x07{>'
tRp2461
ag3
(g5
S'd\xe9z>'
tRp2462
ag3
(g5
S'\xb6\xfcz>'
tRp2463
ag3
(g5
S'\x00\x05z>'
tRp2464
ag3
(g5
S'\xc5\x1fz>'
tRp2465
ag3
(g5
S'\xbd\rz>'
tRp2466
ag3
(g5
S'y:y>'
tRp2467
ag3
(g5
S'\xf8\xbax>'
tRp2468
ag3
(g5
S'\x1ddx>'
tRp2469
ag3
(g5
S'\xcf\xddw>'
tRp2470
ag3
(g5
S'\xa2aw>'
tRp2471
ag3
(g5
S'\xb5\x96v>'
tRp2472
ag3
(g5
S'\xca8v>'
tRp2473
ag3
(g5
S'\xa68v>'
tRp2474
ag3
(g5
S'\xe0\xa6u>'
tRp2475
ag3
(g5
S'\xe7Vu>'
tRp2476
ag3
(g5
S'c\x06u>'
tRp2477
ag3
(g5
S'>\xaft>'
tRp2478
ag3
(g5
S'\xa52t>'
tRp2479
ag3
(g5
S'}\x15t>'
tRp2480
ag3
(g5
S'\xf9js>'
tRp2481
ag3
(g5
S'h\xe8r>'
tRp2482
ag3
(g5
S'\xcc`r>'
tRp2483
ag3
(g5
S'\x896r>'
tRp2484
ag3
(g5
S'"#r>'
tRp2485
ag3
(g5
S'\xec\x9eq>'
tRp2486
ag3
(g5
S'\x00;q>'
tRp2487
ag3
(g5
S'\x8d\x85p>'
tRp2488
ag3
(g5
S'\xactp>'
tRp2489
ag3
(g5
S'\xfc\x13p>'
tRp2490
ag3
(g5
S'g\xc8o>'
tRp2491
ag3
(g5
S'\x81[o>'
tRp2492
ag3
(g5
S'U\x02o>'
tRp2493
ag3
(g5
S'W\x14n>'
tRp2494
ag3
(g5
S'!\xf8m>'
tRp2495
ag3
(g5
S'n\xb2m>'
tRp2496
ag3
(g5
S'\xc9\x91m>'
tRp2497
ag3
(g5
S'\x07\xb5m>'
tRp2498
ag3
(g5
S'\x1e\xa2m>'
tRp2499
ag3
(g5
S'T\xdfl>'
tRp2500
ag3
(g5
S'Z\xf6l>'
tRp2501
ag3
(g5
S'\x80\xcdl>'
tRp2502
ag3
(g5
S'\t\xebl>'
tRp2503
ag3
(g5
S':\x1dl>'
tRp2504
ag3
(g5
S'{\xb0k>'
tRp2505
ag3
(g5
S'\xd3{k>'
tRp2506
ag3
(g5
S'\x00\x92k>'
tRp2507
ag3
(g5
S'\xf0*k>'
tRp2508
ag3
(g5
S'd\xdej>'
tRp2509
ag3
(g5
S'}\x8bj>'
tRp2510
ag3
(g5
S'T\x9aj>'
tRp2511
ag3
(g5
S'\xe7\x8ej>'
tRp2512
ag3
(g5
S'b\x1aj>'
tRp2513
ag3
(g5
S'\xa2\xb5i>'
tRp2514
ag3
(g5
S'\xe7Gi>'
tRp2515
ag3
(g5
S'\xe7\xe8h>'
tRp2516
ag3
(g5
S'\xf5\x82h>'
tRp2517
ag3
(g5
S'&\xafh>'
tRp2518
ag3
(g5
S'Z\xedg>'
tRp2519
ag3
(g5
S'\xb6\xc5g>'
tRp2520
ag3
(g5
S'\xa4]g>'
tRp2521
ag3
(g5
S'R\x00g>'
tRp2522
ag3
(g5
S'-\xd6f>'
tRp2523
ag3
(g5
S'\xfa!g>'
tRp2524
ag3
(g5
S'd\xf8e>'
tRp2525
ag3
(g5
S'\xc4\xe5e>'
tRp2526
ag3
(g5
S'\x81\xb1e>'
tRp2527
ag3
(g5
S"'\x93e>"
tRp2528
ag3
(g5
S' \xbde>'
tRp2529
ag3
(g5
S';\x98e>'
tRp2530
ag3
(g5
S'0\x82d>'
tRp2531
ag3
(g5
S's\xe9d>'
tRp2532
ag3
(g5
S'\xfe\x95d>'
tRp2533
ag3
(g5
S'P\xd6c>'
tRp2534
ag3
(g5
S'\x00\x9cc>'
tRp2535
ag3
(g5
S'\\\xdbb>'
tRp2536
ag3
(g5
S'S\xf2b>'
tRp2537
ag3
(g5
S'\xaa\x04c>'
tRp2538
ag3
(g5
S'\x83\x8ab>'
tRp2539
ag3
(g5
S'Mcb>'
tRp2540
ag3
(g5
S'\x00ib>'
tRp2541
ag3
(g5
S'\x8b\x96a>'
tRp2542
ag3
(g5
S'wEa>'
tRp2543
ag3
(g5
S'\xd5\xb3`>'
tRp2544
ag3
(g5
S'%.`>'
tRp2545
ag3
(g5
S'\xa7\x9f_>'
tRp2546
ag3
(g5
S'\x81\xa3_>'
tRp2547
ag3
(g5
S'\xe2\x12_>'
tRp2548
ag3
(g5
S'\xa4\xb5^>'
tRp2549
ag3
(g5
S'`0^>'
tRp2550
ag3
(g5
S'\x174^>'
tRp2551
ag3
(g5
S'\xaa\xbc]>'
tRp2552
ag3
(g5
S'\t\xad]>'
tRp2553
ag3
(g5
S'\xc5/]>'
tRp2554
ag3
(g5
S'\x17\xd8\\>'
tRp2555
ag3
(g5
S'o-\\>'
tRp2556
ag3
(g5
S'\xfcO\\>'
tRp2557
ag3
(g5
S'\x18\r\\>'
tRp2558
ag3
(g5
S'3\xff[>'
tRp2559
ag3
(g5
S'\x17\x86[>'
tRp2560
ag3
(g5
S's\xf7Z>'
tRp2561
ag3
(g5
S's\x00[>'
tRp2562
ag3
(g5
S'\x10\x8c[>'
tRp2563
ag3
(g5
S'\xa8\xf3Z>'
tRp2564
ag3
(g5
S'P\xc6Z>'
tRp2565
ag3
(g5
S'\xcdiZ>'
tRp2566
ag3
(g5
S'\xcc\xbaY>'
tRp2567
ag3
(g5
S'\xf5\xceY>'
tRp2568
ag3
(g5
S'B\xd1Y>'
tRp2569
ag3
(g5
S'-jY>'
tRp2570
ag3
(g5
S'5WY>'
tRp2571
ag3
(g5
S'5>X>'
tRp2572
ag3
(g5
S"'\x1eX>"
tRp2573
ag3
(g5
S'\x91\x8aX>'
tRp2574
ag3
(g5
S'\xe5\xa6W>'
tRp2575
ag3
(g5
S'\xfa@W>'
tRp2576
ag3
(g5
S'\xd2\xbcV>'
tRp2577
ag3
(g5
S'\xf9@V>'
tRp2578
ag3
(g5
S'\xb6+V>'
tRp2579
ag3
(g5
S'&vU>'
tRp2580
ag3
(g5
S'yhV>'
tRp2581
ag3
(g5
S'\x08FU>'
tRp2582
ag3
(g5
S'`7U>'
tRp2583
ag3
(g5
S')\xf3T>'
tRp2584
ag3
(g5
S'\xc9\xd2T>'
tRp2585
ag3
(g5
S'\x8b&T>'
tRp2586
ag3
(g5
S'\xa4\xcbS>'
tRp2587
ag3
(g5
S'i\x9eS>'
tRp2588
ag3
(g5
S'u$S>'
tRp2589
ag3
(g5
S'\x17eS>'
tRp2590
ag3
(g5
S'\xe6gR>'
tRp2591
ag3
(g5
S'\xd1\x9cR>'
tRp2592
ag3
(g5
S'-\xd9Q>'
tRp2593
ag3
(g5
S'\xf3\x8fQ>'
tRp2594
ag3
(g5
S'\xfaOQ>'
tRp2595
ag3
(g5
S's\x84Q>'
tRp2596
ag3
(g5
S'\xa8/Q>'
tRp2597
ag3
(g5
S'\x87\rQ>'
tRp2598
ag3
(g5
S'\x0e\tQ>'
tRp2599
ag3
(g5
S'x\xfbP>'
tRp2600
ag3
(g5
S'\xffpP>'
tRp2601
ag3
(g5
S'\xdeWP>'
tRp2602
ag3
(g5
S'\xcaVP>'
tRp2603
ag3
(g5
S'\xa6iP>'
tRp2604
ag3
(g5
S'\xd7\xd2O>'
tRp2605
ag3
(g5
S'\x14CO>'
tRp2606
ag3
(g5
S'\xb6\xf2N>'
tRp2607
ag3
(g5
S'^\xd7N>'
tRp2608
ag3
(g5
S't\x9bN>'
tRp2609
ag3
(g5
S'\xd7\x9fN>'
tRp2610
ag3
(g5
S'\xfa\xabN>'
tRp2611
ag3
(g5
S'\xea\x07N>'
tRp2612
ag3
(g5
S'-8N>'
tRp2613
ag3
(g5
S'\x05\xaaM>'
tRp2614
ag3
(g5
S'\xb0\x81M>'
tRp2615
ag3
(g5
S'\xa3hM>'
tRp2616
ag3
(g5
S'\xae\xf9L>'
tRp2617
ag3
(g5
S'\xc3\xc1L>'
tRp2618
ag3
(g5
S'\x1b\xfcL>'
tRp2619
ag3
(g5
S'mzL>'
tRp2620
ag3
(g5
S'\x8f$L>'
tRp2621
ag3
(g5
S'\xc3\xd8K>'
tRp2622
ag3
(g5
S'\xa7\x9dK>'
tRp2623
ag3
(g5
S')\xb7K>'
tRp2624
ag3
(g5
S"'\xbdJ>"
tRp2625
ag3
(g5
S'\xf8JK>'
tRp2626
ag3
(g5
S'\x93)K>'
tRp2627
ag3
(g5
S'\xd9\xe8J>'
tRp2628
ag3
(g5
S'\x16\xe4J>'
tRp2629
ag3
(g5
S'd\xc5J>'
tRp2630
ag3
(g5
S'B\xacJ>'
tRp2631
ag3
(g5
S'\xba[J>'
tRp2632
ag3
(g5
S'0\x1cJ>'
tRp2633
ag3
(g5
S'\x06\rJ>'
tRp2634
ag3
(g5
S'\xd3\x8fI>'
tRp2635
ag3
(g5
S'\xfd\xebI>'
tRp2636
ag3
(g5
S'\xae5J>'
tRp2637
ag3
(g5
S'^\xbeI>'
tRp2638
ag3
(g5
S'{\x94I>'
tRp2639
ag3
(g5
S'\xb0\x83I>'
tRp2640
ag3
(g5
S'j\xe9H>'
tRp2641
ag3
(g5
S'\x99\rI>'
tRp2642
ag3
(g5
S'Y\x03I>'
tRp2643
ag3
(g5
S'\xe5\xc3G>'
tRp2644
ag3
(g5
S'\n\xb8G>'
tRp2645
ag3
(g5
S'\x8f\xa0G>'
tRp2646
ag3
(g5
S'\xf2\xf0G>'
tRp2647
ag3
(g5
S'NLG>'
tRp2648
ag3
(g5
S'\xfe G>'
tRp2649
ag3
(g5
S'\xd1\x92F>'
tRp2650
ag3
(g5
S'V\xa1F>'
tRp2651
ag3
(g5
S'\x96CF>'
tRp2652
ag3
(g5
S'\x1b\xffE>'
tRp2653
ag3
(g5
S'-\xe2E>'
tRp2654
ag3
(g5
S'\xaczE>'
tRp2655
ag3
(g5
S'dKE>'
tRp2656
ag3
(g5
S'\n)E>'
tRp2657
ag3
(g5
S'\xd3\nE>'
tRp2658
ag3
(g5
S'j\xadD>'
tRp2659
ag3
(g5
S'\xe1\xcdD>'
tRp2660
ag3
(g5
S'\xcb$D>'
tRp2661
ag3
(g5
S'\xa0\x04D>'
tRp2662
ag3
(g5
S'\x97\x82C>'
tRp2663
ag3
(g5
S'\x89\x03C>'
tRp2664
ag3
(g5
S'_CC>'
tRp2665
ag3
(g5
S'\x98\x9bB>'
tRp2666
ag3
(g5
S'\xa0\xccB>'
tRp2667
ag3
(g5
S't\x9aB>'
tRp2668
ag3
(g5
S'\xdf\x87B>'
tRp2669
ag3
(g5
S'\x83\rB>'
tRp2670
ag3
(g5
S'\x91!B>'
tRp2671
ag3
(g5
S'\xba\xa7A>'
tRp2672
ag3
(g5
S'\xe8\x8eA>'
tRp2673
ag3
(g5
S')vA>'
tRp2674
ag3
(g5
S'\xd3<A>'
tRp2675
ag3
(g5
S'\xf85A>'
tRp2676
ag3
(g5
S'\xdb\xd9@>'
tRp2677
ag3
(g5
S'I\x9f@>'
tRp2678
ag3
(g5
S'J\x92@>'
tRp2679
ag3
(g5
S'\x10D@>'
tRp2680
ag3
(g5
S'\xcd\x04@>'
tRp2681
ag3
(g5
S'm\xca?>'
tRp2682
ag3
(g5
S'\x87\x98?>'
tRp2683
ag3
(g5
S'~g?>'
tRp2684
ag3
(g5
S'\xb4\xa6?>'
tRp2685
ag3
(g5
S'\xa4\x13?>'
tRp2686
ag3
(g5
S'\xed;?>'
tRp2687
ag3
(g5
S'\xe72?>'
tRp2688
ag3
(g5
S'J_?>'
tRp2689
ag3
(g5
S'\x07\x00?>'
tRp2690
ag3
(g5
S'\xff[>>'
tRp2691
ag3
(g5
S'F\x98>>'
tRp2692
ag3
(g5
S'\x84\x9d>>'
tRp2693
ag3
(g5
S'\x9f\x17>>'
tRp2694
ag3
(g5
S'\xe2\x1a>>'
tRp2695
ag3
(g5
S'J\x97=>'
tRp2696
ag3
(g5
S'\xef-=>'
tRp2697
ag3
(g5
S'[\x10=>'
tRp2698
ag3
(g5
S'%8=>'
tRp2699
ag3
(g5
S'8\xc7<>'
tRp2700
ag3
(g5
S'\x9c\xe5<>'
tRp2701
ag3
(g5
S'"\x03<>'
tRp2702
ag3
(g5
S'\x0c\xf7;>'
tRp2703
ag3
(g5
S'(\n<>'
tRp2704
ag3
(g5
S'\\\xb1;>'
tRp2705
ag3
(g5
S'\xac\xf8;>'
tRp2706
ag3
(g5
S'\xc6\x87;>'
tRp2707
ag3
(g5
S'L2;>'
tRp2708
ag3
(g5
S'\xd80;>'
tRp2709
ag3
(g5
S'\xb6`;>'
tRp2710
ag3
(g5
S'\x11\xd5:>'
tRp2711
ag3
(g5
S'm\xf9:>'
tRp2712
ag3
(g5
S'\xb0\xfe:>'
tRp2713
ag3
(g5
S'uU:>'
tRp2714
ag3
(g5
S'\xd9]:>'
tRp2715
ag3
(g5
S'5T:>'
tRp2716
ag3
(g5
S'\xc8\x82:>'
tRp2717
ag3
(g5
S'\x1d$:>'
tRp2718
ag3
(g5
S'\xd3\x949>'
tRp2719
ag3
(g5
S'm\xf99>'
tRp2720
ag3
(g5
S"'\xaa9>"
tRp2721
ag3
(g5
S' \xd59>'
tRp2722
ag3
(g5
S'\xd1~:>'
tRp2723
ag3
(g5
S'\xd5s9>'
tRp2724
ag3
(g5
S'ot9>'
tRp2725
ag3
(g5
S'\xf6\xf98>'
tRp2726
ag3
(g5
S'\x91|8>'
tRp2727
ag3
(g5
S'\xce\x858>'
tRp2728
ag3
(g5
S'[y9>'
tRp2729
ag3
(g5
S'\xd9\xaf8>'
tRp2730
ag3
(g5
S'\xef\xd58>'
tRp2731
ag3
(g5
S'\x1b\t8>'
tRp2732
ag3
(g5
S'\x82L8>'
tRp2733
ag3
(g5
S'\r\xc27>'
tRp2734
ag3
(g5
S'?\x977>'
tRp2735
ag3
(g5
S'-\xa97>'
tRp2736
ag3
(g5
S'\xd9L7>'
tRp2737
ag3
(g5
S'\xd7b7>'
tRp2738
ag3
(g5
S'h\xe56>'
tRp2739
ag3
(g5
S'\xe157>'
tRp2740
ag3
(g5
S'\x17\xc26>'
tRp2741
ag3
(g5
S'\x93\xca6>'
tRp2742
ag3
(g5
S'\x87i6>'
tRp2743
ag3
(g5
S'?\x1c6>'
tRp2744
ag3
(g5
S'V\x985>'
tRp2745
ag3
(g5
S'\xe3\xb05>'
tRp2746
ag3
(g5
S'\x1f\xa05>'
tRp2747
ag3
(g5
S'\xc7^5>'
tRp2748
ag3
(g5
S'\xfa\xee4>'
tRp2749
ag3
(g5
S'\xdbU5>'
tRp2750
ag3
(g5
S'7\x125>'
tRp2751
ag3
(g5
S'\x14\xd04>'
tRp2752
ag3
(g5
S'\xd3\x9a4>'
tRp2753
ag3
(g5
S'\xfe\xf93>'
tRp2754
ag3
(g5
S'\xf6\xf63>'
tRp2755
ag3
(g5
S'\x9e\xd63>'
tRp2756
ag3
(g5
S'\x80\xf73>'
tRp2757
ag3
(g5
S'\xe5\x024>'
tRp2758
ag3
(g5
S'\xdb\x973>'
tRp2759
ag3
(g5
S'\xd3\xd43>'
tRp2760
ag3
(g5
S'\xcc\x853>'
tRp2761
ag3
(g5
S'\\\xb82>'
tRp2762
ag3
(g5
S'\x14\xd12>'
tRp2763
ag3
(g5
S'\x90\xe41>'
tRp2764
ag3
(g5
S'\x0e\xf91>'
tRp2765
ag3
(g5
S'\xc5\xbc1>'
tRp2766
ag3
(g5
S'hH1>'
tRp2767
ag3
(g5
S'\xd7\xbd1>'
tRp2768
ag3
(g5
S'\xb6k1>'
tRp2769
ag3
(g5
S'0\xea0>'
tRp2770
ag3
(g5
S'T\xf30>'
tRp2771
ag3
(g5
S'?\xe20>'
tRp2772
ag3
(g5
S'\xea\xe10>'
tRp2773
ag3
(g5
S'\xc3h0>'
tRp2774
ag3
(g5
S'\xfd\xfa0>'
tRp2775
ag3
(g5
S'\xe7\x950>'
tRp2776
ag3
(g5
S'\x8bG/>'
tRp2777
ag3
(g5
S'1\x110>'
tRp2778
ag3
(g5
S'/\xee/>'
tRp2779
ag3
(g5
S'/\x82/>'
tRp2780
ag3
(g5
S'\x05\xf5/>'
tRp2781
ag3
(g5
S'\xd8$0>'
tRp2782
ag3
(g5
S'/~/>'
tRp2783
ag3
(g5
S'\r\xd4/>'
tRp2784
ag3
(g5
S'\x12u/>'
tRp2785
ag3
(g5
S'\x8d\x13/>'
tRp2786
ag3
(g5
S'a\xe7/>'
tRp2787
ag3
(g5
S'\x08\xa0/>'
tRp2788
ag3
(g5
S'?\xbc.>'
tRp2789
ag3
(g5
S'\x1e//>'
tRp2790
ag3
(g5
S'\x89\xfc.>'
tRp2791
ag3
(g5
S'\xb9\x14/>'
tRp2792
ag3
(g5
S'1I/>'
tRp2793
ag3
(g5
S'\xdf\xaa.>'
tRp2794
ag3
(g5
S'T\xfd.>'
tRp2795
ag3
(g5
S'\xd3!.>'
tRp2796
ag3
(g5
S'T\xae.>'
tRp2797
ag3
(g5
S'B7.>'
tRp2798
ag3
(g5
S'L%.>'
tRp2799
ag3
(g5
S'd@.>'
tRp2800
ag3
(g5
S'J\xc6->'
tRp2801
ag3
(g5
S'\no->'
tRp2802
ag3
(g5
S'\x0fE->'
tRp2803
ag3
(g5
S'\xd1\x1a->'
tRp2804
ag3
(g5
S'\xc5+->'
tRp2805
ag3
(g5
S'F\xb8,>'
tRp2806
ag3
(g5
S'g\x9e,>'
tRp2807
ag3
(g5
S'\x92Q,>'
tRp2808
ag3
(g5
S'\xfe{,>'
tRp2809
ag3
(g5
S'{r+>'
tRp2810
ag3
(g5
S'!\xb3+>'
tRp2811
ag3
(g5
S'\xefW+>'
tRp2812
ag3
(g5
S'r\xe3+>'
tRp2813
ag3
(g5
S'\x14\xc9*>'
tRp2814
ag3
(g5
S'a\xcd*>'
tRp2815
ag3
(g5
S'\xa0\x03+>'
tRp2816
ag3
(g5
S'\xd0\xed*>'
tRp2817
ag3
(g5
S'Jk*>'
tRp2818
ag3
(g5
S'\xac\xfc)>'
tRp2819
ag3
(g5
S'%\x95)>'
tRp2820
ag3
(g5
S'\xd7\xcb)>'
tRp2821
ag3
(g5
S'\x08w)>'
tRp2822
ag3
(g5
S'\xb2J)>'
tRp2823
ag3
(g5
S'\x1ff)>'
tRp2824
ag3
(g5
S'>\x01)>'
tRp2825
ag3
(g5
S'\xca\x1f)>'
tRp2826
ag3
(g5
S'\xa33(>'
tRp2827
ag3
(g5
S'}{(>'
tRp2828
ag3
(g5
S'\xb5q(>'
tRp2829
ag3
(g5
S'&8(>'
tRp2830
ag3
(g5
S"5\x82'>"
tRp2831
ag3
(g5
S"\xbc\xb3'>"
tRp2832
ag3
(g5
S"p\x90'>"
tRp2833
ag3
(g5
S'\xf6\xb0&>'
tRp2834
ag3
(g5
S'\t\xfa&>'
tRp2835
ag3
(g5
S'\xb0\xbd&>'
tRp2836
ag3
(g5
S'\x85e&>'
tRp2837
ag3
(g5
S'[;&>'
tRp2838
ag3
(g5
S'D\xf7%>'
tRp2839
ag3
(g5
S'|^&>'
tRp2840
ag3
(g5
S'\xf6\x9a&>'
tRp2841
ag3
(g5
S'\x17\xe8%>'
tRp2842
ag3
(g5
S'\x1f/%>'
tRp2843
ag3
(g5
S'\xdbc%>'
tRp2844
ag3
(g5
S'\x91\xf3$>'
tRp2845
ag3
(g5
S'\xe0W%>'
tRp2846
ag3
(g5
S'{\xe8$>'
tRp2847
ag3
(g5
S'\xd7x$>'
tRp2848
ag3
(g5
S'\xc7\x1f%>'
tRp2849
ag3
(g5
S'OL$>'
tRp2850
ag3
(g5
S'\x8dm$>'
tRp2851
ag3
(g5
S'gH$>'
tRp2852
ag3
(g5
S'\xcc\xf7#>'
tRp2853
ag3
(g5
S's\x17$>'
tRp2854
ag3
(g5
S'[6$>'
tRp2855
ag3
(g5
S'L\x8f#>'
tRp2856
ag3
(g5
S'\xdbp#>'
tRp2857
ag3
(g5
S'V\xd3#>'
tRp2858
ag3
(g5
S'\xf0\x83#>'
tRp2859
ag3
(g5
S'\x19*#>'
tRp2860
ag3
(g5
S';\xa3">'
tRp2861
ag3
(g5
S'\x1f\xfc!>'
tRp2862
ag3
(g5
S'\xb3k">'
tRp2863
ag3
(g5
S'W\xb2">'
tRp2864
ag3
(g5
S'\xb4\x10">'
tRp2865
ag3
(g5
S'[)">'
tRp2866
ag3
(g5
S'P\xf0!>'
tRp2867
ag3
(g5
S')o!>'
tRp2868
ag3
(g5
S'\xc9?!>'
tRp2869
ag3
(g5
S'\xc7\x8a!>'
tRp2870
ag3
(g5
S'|@!>'
tRp2871
ag3
(g5
S'!\x1c!>'
tRp2872
ag3
(g5
S'\x8c\x8d >'
tRp2873
ag3
(g5
S'\x96T >'
tRp2874
ag3
(g5
S'\xc3\xa2\x1f>'
tRp2875
ag3
(g5
S'\x19\xf0\x1f>'
tRp2876
ag3
(g5
S']? >'
tRp2877
ag3
(g5
S'\xbf\xb6\x1f>'
tRp2878
ag3
(g5
S'\xd7\xa9\x1f>'
tRp2879
ag3
(g5
S'#k\x1f>'
tRp2880
ag3
(g5
S'YP\x1f>'
tRp2881
ag3
(g5
S'\xaf}\x1f>'
tRp2882
ag3
(g5
S'#\xfc\x1e>'
tRp2883
ag3
(g5
S'\xc9\xc2\x1e>'
tRp2884
ag3
(g5
S'\xfa\x13\x1f>'
tRp2885
ag3
(g5
S'\xb4~\x1e>'
tRp2886
ag3
(g5
S'\xee\\\x1e>'
tRp2887
ag3
(g5
S' V\x1e>'
tRp2888
ag3
(g5
S'\x833\x1e>'
tRp2889
ag3
(g5
S'\xb2\x05\x1e>'
tRp2890
ag3
(g5
S'\x91\x1e\x1e>'
tRp2891
ag3
(g5
S'\xc3\x17\x1e>'
tRp2892
ag3
(g5
S'\xfc\xc8\x1d>'
tRp2893
ag3
(g5
S'\xa6\xaa\x1d>'
tRp2894
ag3
(g5
S'\xfe\xb7\x1d>'
tRp2895
ag3
(g5
S'\xd6\x85\x1d>'
tRp2896
ag3
(g5
S'\xd9H\x1d>'
tRp2897
ag3
(g5
S'\x8bu\x1d>'
tRp2898
ag3
(g5
S'\xa1}\x1d>'
tRp2899
ag3
(g5
S'\xb4\xf4\x1c>'
tRp2900
ag3
(g5
S'9\xf7\x1c>'
tRp2901
ag3
(g5
S'\x8b\x8a\x1c>'
tRp2902
ag3
(g5
S'\xcby\x1c>'
tRp2903
ag3
(g5
S'f\x08\x1d>'
tRp2904
ag3
(g5
S'!\xcb\x1c>'
tRp2905
ag3
(g5
S'\\\xe3\x1b>'
tRp2906
ag3
(g5
S'\x83\xb7\x1b>'
tRp2907
ag3
(g5
S'\xf8\x1a\x1c>'
tRp2908
ag3
(g5
S'\xc3#\x1c>'
tRp2909
ag3
(g5
S'\xfcj\x1b>'
tRp2910
ag3
(g5
S'\xf6\xa8\x1b>'
tRp2911
ag3
(g5
S'/r\x1b>'
tRp2912
ag3
(g5
S'\x1b\x12\x1b>'
tRp2913
ag3
(g5
S"'\xc6\x1a>"
tRp2914
ag3
(g5
S'\xe3w\x1a>'
tRp2915
ag3
(g5
S'u\xf5\x1a>'
tRp2916
ag3
(g5
S'\xa1?\x1a>'
tRp2917
ag3
(g5
S'/\xd1\x1a>'
tRp2918
ag3
(g5
S'\xa4\x97\x1a>'
tRp2919
ag3
(g5
S'\x93\x96\x1a>'
tRp2920
ag3
(g5
S'\x19\r\x1a>'
tRp2921
ag3
(g5
S'\xbbO\x1a>'
tRp2922
ag3
(g5
S'&>\x1a>'
tRp2923
ag3
(g5
S'e\xa7\x19>'
tRp2924
ag3
(g5
S'\x9b\xff\x19>'
tRp2925
ag3
(g5
S')/\x19>'
tRp2926
ag3
(g5
S'(w\x19>'
tRp2927
ag3
(g5
S'\xdc\xab\x19>'
tRp2928
ag3
(g5
S'\x1d\xfc\x18>'
tRp2929
ag3
(g5
S')\xed\x18>'
tRp2930
ag3
(g5
S'L\xc5\x18>'
tRp2931
ag3
(g5
S'\xa0\xf6\x18>'
tRp2932
ag3
(g5
S'\x08\xc7\x18>'
tRp2933
ag3
(g5
S'\xbc\xe9\x18>'
tRp2934
ag3
(g5
S'R\xda\x18>'
tRp2935
ag3
(g5
S'\x81\x0c\x18>'
tRp2936
ag3
(g5
S'\xf8\xe9\x17>'
tRp2937
ag3
(g5
S'\xf1\xb7\x18>'
tRp2938
ag3
(g5
S'f\t\x18>'
tRp2939
ag3
(g5
S'M\xe4\x17>'
tRp2940
ag3
(g5
S',\x07\x18>'
tRp2941
ag3
(g5
S'\xd3\xa4\x17>'
tRp2942
ag3
(g5
S'\x1d\xb8\x17>'
tRp2943
ag3
(g5
S'U\x8c\x17>'
tRp2944
ag3
(g5
S'\xd5b\x17>'
tRp2945
ag3
(g5
S'\xf4C\x17>'
tRp2946
ag3
(g5
S'T?\x17>'
tRp2947
ag3
(g5
S'\xbcq\x17>'
tRp2948
ag3
(g5
S'\x10\xeb\x16>'
tRp2949
ag3
(g5
S'\xe1\x17\x17>'
tRp2950
ag3
(g5
S'c\x83\x16>'
tRp2951
ag3
(g5
S'b\xba\x16>'
tRp2952
ag3
(g5
S'\xe9\xc9\x16>'
tRp2953
ag3
(g5
S'\x8dP\x16>'
tRp2954
ag3
(g5
S'3 \x16>'
tRp2955
ag3
(g5
S'\xf2\xd2\x15>'
tRp2956
ag3
(g5
S'\xba\xc5\x15>'
tRp2957
ag3
(g5
S'\xb0\xdb\x15>'
tRp2958
ag3
(g5
S'\x02\xeb\x15>'
tRp2959
ag3
(g5
S'\xd6X\x15>'
tRp2960
ag3
(g5
S'\xbc\xf7\x14>'
tRp2961
ag3
(g5
S'f\x1e\x15>'
tRp2962
ag3
(g5
S'%)\x15>'
tRp2963
ag3
(g5
S'\\=\x14>'
tRp2964
ag3
(g5
S'\xd5\x82\x14>'
tRp2965
ag3
(g5
S'\xda`\x14>'
tRp2966
ag3
(g5
S'\xbf\xc2\x13>'
tRp2967
ag3
(g5
S'\x89\x02\x14>'
tRp2968
ag3
(g5
S'\xdd\xea\x13>'
tRp2969
ag3
(g5
S'\xfeg\x13>'
tRp2970
ag3
(g5
S'\x91G\x13>'
tRp2971
ag3
(g5
S'/R\x13>'
tRp2972
ag3
(g5
S'*M\x13>'
tRp2973
ag3
(g5
S'\x93m\x13>'
tRp2974
ag3
(g5
S'o\x0b\x13>'
tRp2975
ag3
(g5
S'\xfb:\x13>'
tRp2976
ag3
(g5
S'\xb6\x08\x13>'
tRp2977
ag3
(g5
S'f\xee\x12>'
tRp2978
ag3
(g5
S'/\xa6\x12>'
tRp2979
ag3
(g5
S'\xed\xb1\x12>'
tRp2980
ag3
(g5
S'*\x04\x13>'
tRp2981
ag3
(g5
S'\x12C\x12>'
tRp2982
ag3
(g5
S'~`\x12>'
tRp2983
ag3
(g5
S'\xee\xc0\x12>'
tRp2984
ag3
(g5
S'\xc1\xf4\x11>'
tRp2985
ag3
(g5
S'ND\x12>'
tRp2986
ag3
(g5
S'4=\x12>'
tRp2987
ag3
(g5
S'\xb0\xb8\x11>'
tRp2988
ag3
(g5
S'\xc7\xc4\x11>'
tRp2989
ag3
(g5
S'\xbdf\x11>'
tRp2990
ag3
(g5
S'\x06\xa5\x11>'
tRp2991
ag3
(g5
S'e\x8f\x11>'
tRp2992
ag3
(g5
S'=\xaa\x11>'
tRp2993
ag3
(g5
S'\xd7,\x11>'
tRp2994
ag3
(g5
S'\xa9\xec\x10>'
tRp2995
ag3
(g5
S'p\xac\x10>'
tRp2996
ag3
(g5
S'I9\x11>'
tRp2997
ag3
(g5
S'\xa6\x08\x11>'
tRp2998
ag3
(g5
S'\x02\xa4\x10>'
tRp2999
ag3
(g5
S'] \x11>'
tRp3000
ag3
(g5
S'\xb22\x10>'
tRp3001
ag3
(g5
S'\xe5W\x10>'
tRp3002
ag3
(g5
S'\xb0\xbc\x10>'
tRp3003
ag3
(g5
S'\xbe\xe5\x0f>'
tRp3004
ag3
(g5
S'\x0ea\x10>'
tRp3005
ag3
(g5
S'+\xb2\x0f>'
tRp3006
ag3
(g5
S'\x13o\x10>'
tRp3007
aa(lp3008
g3
(g5
S"'\xd0\xd9?"
tRp3009
ag3
(g5
S'\xdf\x8c\xbb?'
tRp3010
ag3
(g5
S'#\xe3\xab?'
tRp3011
ag3
(g5
S'f\xc0\xa1?'
tRp3012
ag3
(g5
S'\x89\xf1\x9a?'
tRp3013
ag3
(g5
S'\x07$\x96?'
tRp3014
ag3
(g5
S'\x1d\x8b\x92?'
tRp3015
ag3
(g5
S'=\xd5\x8f?'
tRp3016
ag3
(g5
S'^}\x8d?'
tRp3017
ag3
(g5
S'\xd3\xa6\x8b?'
tRp3018
ag3
(g5
S'\x1d\x0c\x8a?'
tRp3019
ag3
(g5
S'\xcb\xbc\x88?'
tRp3020
ag3
(g5
S'\x83\xa5\x87?'
tRp3021
ag3
(g5
S'j\xc2\x86?'
tRp3022
ag3
(g5
S'=\xe3\x85?'
tRp3023
ag3
(g5
S'r>\x85?'
tRp3024
ag3
(g5
S'\xf2\x91\x84?'
tRp3025
ag3
(g5
S')\x1f\x84?'
tRp3026
ag3
(g5
S'\xb5\xbb\x83?'
tRp3027
ag3
(g5
S'\x9cE\x83?'
tRp3028
ag3
(g5
S'9\xe8\x82?'
tRp3029
ag3
(g5
S'E\x96\x82?'
tRp3030
ag3
(g5
S'\xf9H\x82?'
tRp3031
ag3
(g5
S'\xc1\x17\x82?'
tRp3032
ag3
(g5
S'\xfd\xea\x81?'
tRp3033
ag3
(g5
S'\xea\xb0\x81?'
tRp3034
ag3
(g5
S'\xa7q\x81?'
tRp3035
ag3
(g5
S'\xcb9\x81?'
tRp3036
ag3
(g5
S'\n\x11\x81?'
tRp3037
ag3
(g5
S'\x1c\xfa\x80?'
tRp3038
ag3
(g5
S'\xbf\xd6\x80?'
tRp3039
ag3
(g5
S'o\xc1\x80?'
tRp3040
ag3
(g5
S'\xb3\xa4\x80?'
tRp3041
ag3
(g5
S'\x07\x85\x80?'
tRp3042
ag3
(g5
S'\xd2i\x80?'
tRp3043
ag3
(g5
S'=V\x80?'
tRp3044
ag3
(g5
S'I?\x80?'
tRp3045
ag3
(g5
S'|&\x80?'
tRp3046
ag3
(g5
S'\xa8\x08\x80?'
tRp3047
ag3
(g5
S'T\xd7\x7f?'
tRp3048
ag3
(g5
S'2\xa6\x7f?'
tRp3049
ag3
(g5
S'\xb5j\x7f?'
tRp3050
ag3
(g5
S'uH\x7f?'
tRp3051
ag3
(g5
S'%\xeb~?'
tRp3052
ag3
(g5
S'h\xba~?'
tRp3053
ag3
(g5
S'y\x90~?'
tRp3054
ag3
(g5
S'\xf2R~?'
tRp3055
ag3
(g5
S'{\x11~?'
tRp3056
ag3
(g5
S'\x8d\xd9}?'
tRp3057
ag3
(g5
S'\xfe\x91}?'
tRp3058
ag3
(g5
S'\xf2Y}?'
tRp3059
ag3
(g5
S';.}?'
tRp3060
ag3
(g5
S'E\xed|?'
tRp3061
ag3
(g5
S'Iq|?'
tRp3062
ag3
(g5
S'\xbbd|?'
tRp3063
ag3
(g5
S'\x17\xa2{?'
tRp3064
ag3
(g5
S'\xbcH{?'
tRp3065
ag3
(g5
S'\xe1\x10{?'
tRp3066
ag3
(g5
S'f\x8cz?'
tRp3067
ag3
(g5
S'>?z?'
tRp3068
ag3
(g5
S'\x7f\xa1y?'
tRp3069
ag3
(g5
S'\x9a\ry?'
tRp3070
ag3
(g5
S'\n\xb8x?'
tRp3071
ag3
(g5
S'\x88;x?'
tRp3072
ag3
(g5
S'\x81\xb7w?'
tRp3073
ag3
(g5
S')Ww?'
tRp3074
ag3
(g5
S'\xbc\x9av?'
tRp3075
ag3
(g5
S'w\xdbu?'
tRp3076
ag3
(g5
S'f\x0eu?'
tRp3077
ag3
(g5
S'Q*t?'
tRp3078
ag3
(g5
S'\x87Xs?'
tRp3079
ag3
(g5
S'}\x9br?'
tRp3080
ag3
(g5
S'\xec\xfcq?'
tRp3081
ag3
(g5
S'\xfc\x03q?'
tRp3082
ag3
(g5
S'S\x9ep?'
tRp3083
ag3
(g5
S'J\xd9o?'
tRp3084
ag3
(g5
S'h6o?'
tRp3085
ag3
(g5
S'\xe6\x1an?'
tRp3086
ag3
(g5
S"'\x97m?"
tRp3087
ag3
(g5
S'\xb2\xbbl?'
tRp3088
ag3
(g5
S'\xaf+l?'
tRp3089
ag3
(g5
S'\x02\xd0j?'
tRp3090
ag3
(g5
S'&\xc0i?'
tRp3091
ag3
(g5
S'\xc9\x0bi?'
tRp3092
ag3
(g5
S'\x06\xb5g?'
tRp3093
ag3
(g5
S'%\x9ff?'
tRp3094
ag3
(g5
S'\x8a\x9ee?'
tRp3095
ag3
(g5
S'\xd9\x93d?'
tRp3096
ag3
(g5
S'\xff\x96c?'
tRp3097
ag3
(g5
S'\x8d|b?'
tRp3098
ag3
(g5
S'\x00ga?'
tRp3099
ag3
(g5
S'.\xe2_?'
tRp3100
ag3
(g5
S'/~^?'
tRp3101
ag3
(g5
S'\xae#]?'
tRp3102
ag3
(g5
S'\xde\xdf[?'
tRp3103
ag3
(g5
S'\x81\xc8Z?'
tRp3104
ag3
(g5
S'\xc5\xbbY?'
tRp3105
ag3
(g5
S'\xbcXX?'
tRp3106
ag3
(g5
S'\xfc6W?'
tRp3107
ag3
(g5
S"\x1a'V?"
tRp3108
ag3
(g5
S'X\xedT?'
tRp3109
ag3
(g5
S'\xf7:S?'
tRp3110
ag3
(g5
S'Z"R?'
tRp3111
ag3
(g5
S'\xb1\xddP?'
tRp3112
ag3
(g5
S',\xe3O?'
tRp3113
ag3
(g5
S'\x8ehN?'
tRp3114
ag3
(g5
S'\xee\xc8M?'
tRp3115
ag3
(g5
S'`XL?'
tRp3116
ag3
(g5
S'\xf9\xdbJ?'
tRp3117
ag3
(g5
S'\xbe\x15I?'
tRp3118
ag3
(g5
S'-\xdcH?'
tRp3119
ag3
(g5
S'}.G?'
tRp3120
ag3
(g5
S'\x9a+F?'
tRp3121
ag3
(g5
S'\xa1uE?'
tRp3122
ag3
(g5
S'\x86\xeaC?'
tRp3123
ag3
(g5
S'\xf8\xe9B?'
tRp3124
ag3
(g5
S'w\xddA?'
tRp3125
ag3
(g5
S'\x08`@?'
tRp3126
ag3
(g5
S'\xaf\xeb>?'
tRp3127
ag3
(g5
S'\xf2\xa9=?'
tRp3128
ag3
(g5
S';\xaa<?'
tRp3129
ag3
(g5
S'\x03\xc3;?'
tRp3130
ag3
(g5
S'H\xca:?'
tRp3131
ag3
(g5
S'\x8d\x8b9?'
tRp3132
ag3
(g5
S'l58?'
tRp3133
ag3
(g5
S'l\xfd6?'
tRp3134
ag3
(g5
S'\xf8\x1a6?'
tRp3135
ag3
(g5
S'\xdb\xfa4?'
tRp3136
ag3
(g5
S'\xfcr4?'
tRp3137
ag3
(g5
S'\x91\xac3?'
tRp3138
ag3
(g5
S'\x17\xe22?'
tRp3139
ag3
(g5
S'\xb4\n1?'
tRp3140
ag3
(g5
S'\xc5\xf2/?'
tRp3141
ag3
(g5
S'\xa8u/?'
tRp3142
ag3
(g5
S'^Q.?'
tRp3143
ag3
(g5
S'd\x1a-?'
tRp3144
ag3
(g5
S'\x00X,?'
tRp3145
ag3
(g5
S'\xd1;+?'
tRp3146
ag3
(g5
S'\rm*?'
tRp3147
ag3
(g5
S'%8)?'
tRp3148
ag3
(g5
S';\xa8(?'
tRp3149
ag3
(g5
S"\xfc\xae'?"
tRp3150
ag3
(g5
S'\xab:&?'
tRp3151
ag3
(g5
S'7\xc6%?'
tRp3152
ag3
(g5
S'w\x1c%?'
tRp3153
ag3
(g5
S'\xf8\x1d$?'
tRp3154
ag3
(g5
S'\xa5\x88"?'
tRp3155
ag3
(g5
S';\xd5!?'
tRp3156
ag3
(g5
S'\r\xc1 ?'
tRp3157
ag3
(g5
S'L: ?'
tRp3158
ag3
(g5
S'1 \x1f?'
tRp3159
ag3
(g5
S'ls\x1e?'
tRp3160
ag3
(g5
S'\r\xfc\x1c?'
tRp3161
ag3
(g5
S'^4\x1c?'
tRp3162
ag3
(g5
S'\x87\xf1\x1a?'
tRp3163
ag3
(g5
S'\n4\x1a?'
tRp3164
ag3
(g5
S'1Z\x19?'
tRp3165
ag3
(g5
S'\xc3t\x18?'
tRp3166
ag3
(g5
S'\x93\x1e\x18?'
tRp3167
ag3
(g5
S'\xb8l\x17?'
tRp3168
ag3
(g5
S'\xc9\xac\x16?'
tRp3169
ag3
(g5
S'\x984\x15?'
tRp3170
ag3
(g5
S'H\xc4\x14?'
tRp3171
ag3
(g5
S'\xf3\x13\x14?'
tRp3172
ag3
(g5
S'\xaaj\x13?'
tRp3173
ag3
(g5
S'T\x1f\x13?'
tRp3174
ag3
(g5
S'\xb6\x89\x12?'
tRp3175
ag3
(g5
S'\x87\xe2\x11?'
tRp3176
ag3
(g5
S'\xa4\x16\x11?'
tRp3177
ag3
(g5
S'\xc9\xad\x0f?'
tRp3178
ag3
(g5
S'\xa8\x1a\x0f?'
tRp3179
ag3
(g5
S'\xd7\x9e\x0e?'
tRp3180
ag3
(g5
S'\xce\xbf\r?'
tRp3181
ag3
(g5
S"0'\r?"
tRp3182
ag3
(g5
S'\xf2\xe2\x0b?'
tRp3183
ag3
(g5
S'{S\x0b?'
tRp3184
ag3
(g5
S'\xfb\xd7\n?'
tRp3185
ag3
(g5
S'\xdd\x03\n?'
tRp3186
ag3
(g5
S'.\x9c\t?'
tRp3187
ag3
(g5
S'\x06\xeb\x08?'
tRp3188
ag3
(g5
S'\x10G\x08?'
tRp3189
ag3
(g5
S'0\x89\x07?'
tRp3190
ag3
(g5
S'xc\x07?'
tRp3191
ag3
(g5
S'\xf2\t\x07?'
tRp3192
ag3
(g5
S'\x16\t\x06?'
tRp3193
ag3
(g5
S'\x83\x11\x05?'
tRp3194
ag3
(g5
S'\xe7\xd7\x04?'
tRp3195
ag3
(g5
S'&b\x04?'
tRp3196
ag3
(g5
S'-\xc5\x03?'
tRp3197
ag3
(g5
S'\xd0e\x03?'
tRp3198
ag3
(g5
S'_\xf0\x02?'
tRp3199
ag3
(g5
S'G\xf6\x01?'
tRp3200
ag3
(g5
S'\x0e\xae\x01?'
tRp3201
ag3
(g5
S'\xac@\x01?'
tRp3202
ag3
(g5
S'(\x8b\x01?'
tRp3203
ag3
(g5
S'\xc3\x1a\x01?'
tRp3204
ag3
(g5
S'\xbb\x92\x00?'
tRp3205
ag3
(g5
S'\xa3\x15\x00?'
tRp3206
ag3
(g5
S'&q\xff>'
tRp3207
ag3
(g5
S'\xb3\x06\xfe>'
tRp3208
ag3
(g5
S'\x0e@\xfd>'
tRp3209
ag3
(g5
S'Z\xe6\xfe>'
tRp3210
ag3
(g5
S'\x1a\xaf\xfc>'
tRp3211
ag3
(g5
S'\x9b\x07\xfc>'
tRp3212
ag3
(g5
S'\x81\xb4\xfc>'
tRp3213
ag3
(g5
S'\xb0\x1d\xf9>'
tRp3214
ag3
(g5
S'Xi\xfb>'
tRp3215
ag3
(g5
S'\xc8\xa0\xfa>'
tRp3216
ag3
(g5
S'\xea\xc0\xf8>'
tRp3217
ag3
(g5
S'\xc1/\xf8>'
tRp3218
ag3
(g5
S'^\xa0\xf5>'
tRp3219
ag3
(g5
S'\xb8\xbe\xf5>'
tRp3220
ag3
(g5
S'\x06\x8c\xf6>'
tRp3221
ag3
(g5
S'5z\xf5>'
tRp3222
ag3
(g5
S's\x85\xf4>'
tRp3223
ag3
(g5
S'1\x05\xf2>'
tRp3224
ag3
(g5
S'\x88a\xf2>'
tRp3225
ag3
(g5
S'\xd9\x8d\xef>'
tRp3226
ag3
(g5
S'\x1dW\xf1>'
tRp3227
ag3
(g5
S'B\xb2\xee>'
tRp3228
ag3
(g5
S'\xd6t\xee>'
tRp3229
ag3
(g5
S'\x01\xaf\xec>'
tRp3230
ag3
(g5
S'\x8d^\xed>'
tRp3231
ag3
(g5
S'\xee\x99\xec>'
tRp3232
ag3
(g5
S'\xd5\xc6\xec>'
tRp3233
ag3
(g5
S'\x93\xd0\xeb>'
tRp3234
ag3
(g5
S'\x00\x82\xea>'
tRp3235
ag3
(g5
S'\x97@\xe8>'
tRp3236
ag3
(g5
S'+;\xe7>'
tRp3237
ag3
(g5
S'\xbe\xd6\xe6>'
tRp3238
ag3
(g5
S'|\xa6\xe6>'
tRp3239
ag3
(g5
S'7\xf5\xe5>'
tRp3240
ag3
(g5
S'\x7f\xa3\xe7>'
tRp3241
ag3
(g5
S'\x00\xe8\xe5>'
tRp3242
ag3
(g5
S'\x1f6\xe4>'
tRp3243
ag3
(g5
S'`\xaa\xe3>'
tRp3244
ag3
(g5
S'\x06\xc0\xe4>'
tRp3245
ag3
(g5
S'\xd9\xf7\xe2>'
tRp3246
ag3
(g5
S'\x96\xfb\xe2>'
tRp3247
ag3
(g5
S'\x96\xce\xe2>'
tRp3248
ag3
(g5
S'\x12\x9d\xe2>'
tRp3249
ag3
(g5
S'%y\xe0>'
tRp3250
ag3
(g5
S'\x85\xf2\xe0>'
tRp3251
ag3
(g5
S'\xf1\xdf\xe0>'
tRp3252
ag3
(g5
S'\xb3\xfe\xe0>'
tRp3253
ag3
(g5
S'\xdb\xa1\xe0>'
tRp3254
ag3
(g5
S'\xc7\xb5\xe0>'
tRp3255
ag3
(g5
S'\xb6\xb9\xe0>'
tRp3256
ag3
(g5
S'_\x1a\xe0>'
tRp3257
ag3
(g5
S'\x10\x01\xdf>'
tRp3258
ag3
(g5
S'\xe5\x9a\xdd>'
tRp3259
ag3
(g5
S'\xc9u\xde>'
tRp3260
ag3
(g5
S'\xfe\x8f\xde>'
tRp3261
ag3
(g5
S'\x11l\xde>'
tRp3262
ag3
(g5
S'\xc5Z\xdd>'
tRp3263
ag3
(g5
S'\x90y\xde>'
tRp3264
ag3
(g5
S'\x8b\r\xdc>'
tRp3265
ag3
(g5
S'7*\xdb>'
tRp3266
ag3
(g5
S'\x14\\\xda>'
tRp3267
ag3
(g5
S'RZ\xdb>'
tRp3268
ag3
(g5
S'\xc7d\xda>'
tRp3269
ag3
(g5
S'\xa0\xac\xda>'
tRp3270
ag3
(g5
S'T\x10\xd8>'
tRp3271
ag3
(g5
S'{{\xda>'
tRp3272
ag3
(g5
S'T\xc0\xd7>'
tRp3273
ag3
(g5
S',;\xd7>'
tRp3274
ag3
(g5
S'}\x08\xd6>'
tRp3275
ag3
(g5
S'o\xbe\xd5>'
tRp3276
ag3
(g5
S'\xeaJ\xd7>'
tRp3277
ag3
(g5
S'\x12Y\xd4>'
tRp3278
ag3
(g5
S'\xfe@\xd4>'
tRp3279
ag3
(g5
S'\xcf\xd1\xd3>'
tRp3280
ag3
(g5
S'\xf7c\xd4>'
tRp3281
ag3
(g5
S'\xcc\xc2\xd3>'
tRp3282
ag3
(g5
S'\xde\x0b\xd4>'
tRp3283
ag3
(g5
S'\x14\xc2\xd4>'
tRp3284
ag3
(g5
S'hx\xd4>'
tRp3285
ag3
(g5
S'Jj\xd5>'
tRp3286
ag3
(g5
S"'/\xd3>"
tRp3287
ag3
(g5
S'\x1bx\xd3>'
tRp3288
ag3
(g5
S'\xcd\xcf\xd0>'
tRp3289
ag3
(g5
S'\xd2m\xd0>'
tRp3290
ag3
(g5
S'\xd9\x16\xcf>'
tRp3291
ag3
(g5
S'\x02)\xcf>'
tRp3292
ag3
(g5
S'\xc5\xed\xd0>'
tRp3293
ag3
(g5
S'\\E\xce>'
tRp3294
ag3
(g5
S'$>\xd0>'
tRp3295
ag3
(g5
S'\x1c\xee\xce>'
tRp3296
ag3
(g5
S'\xc5\xbe\xcd>'
tRp3297
ag3
(g5
S'#\xe8\xce>'
tRp3298
ag3
(g5
S'\x96\xb7\xcf>'
tRp3299
ag3
(g5
S'\xac|\xce>'
tRp3300
ag3
(g5
S'\x1c\x01\xce>'
tRp3301
ag3
(g5
S'\xfc\xf8\xcb>'
tRp3302
ag3
(g5
S'\xa7\xfd\xce>'
tRp3303
ag3
(g5
S'\xc6\xff\xcc>'
tRp3304
ag3
(g5
S'\xfbu\xce>'
tRp3305
ag3
(g5
S'\xf0\xcb\xcc>'
tRp3306
ag3
(g5
S'\x8d\x00\xce>'
tRp3307
ag3
(g5
S'\xa8\x97\xcb>'
tRp3308
ag3
(g5
S'\xcfh\xcd>'
tRp3309
ag3
(g5
S'AM\xce>'
tRp3310
ag3
(g5
S'D\x9a\xcd>'
tRp3311
ag3
(g5
S'=7\xcc>'
tRp3312
ag3
(g5
S'\x14p\xcc>'
tRp3313
ag3
(g5
S'R^\xce>'
tRp3314
ag3
(g5
S'#\xe3\xcd>'
tRp3315
ag3
(g5
S'Bf\xce>'
tRp3316
ag3
(g5
S'\xdd)\xcd>'
tRp3317
ag3
(g5
S'L\xad\xca>'
tRp3318
ag3
(g5
S'\xd4\xd7\xc9>'
tRp3319
ag3
(g5
S'\x8d\x04\xcb>'
tRp3320
ag3
(g5
S'\xdb\xff\xc9>'
tRp3321
ag3
(g5
S'\xfac\xc9>'
tRp3322
ag3
(g5
S'\xbd-\xc8>'
tRp3323
ag3
(g5
S'\xd0\x04\xc6>'
tRp3324
ag3
(g5
S'\x14D\xc3>'
tRp3325
ag3
(g5
S'\xd8\x96\xc5>'
tRp3326
ag3
(g5
S'\xba\xe4\xc6>'
tRp3327
ag3
(g5
S'2\x18\xc5>'
tRp3328
ag3
(g5
S'\xacC\xc6>'
tRp3329
ag3
(g5
S'CF\xc6>'
tRp3330
ag3
(g5
S'o\xec\xc4>'
tRp3331
ag3
(g5
S'H\x80\xc7>'
tRp3332
ag3
(g5
S'F+\xc7>'
tRp3333
ag3
(g5
S'\xac\x03\xc5>'
tRp3334
ag3
(g5
S'l<\xc2>'
tRp3335
ag3
(g5
S'3\x0f\xc4>'
tRp3336
ag3
(g5
S'h\x9b\xc4>'
tRp3337
ag3
(g5
S'+/\xc4>'
tRp3338
ag3
(g5
S'\x8f\xf0\xc2>'
tRp3339
ag3
(g5
S'\xe1\x11\xc1>'
tRp3340
ag3
(g5
S'\xb2\x7f\xc1>'
tRp3341
ag3
(g5
S'0C\xbf>'
tRp3342
ag3
(g5
S'J\xbe\xc2>'
tRp3343
ag3
(g5
S'\x0c\xfb\xc3>'
tRp3344
ag3
(g5
S'\xaaM\xc1>'
tRp3345
ag3
(g5
S'+t\xc0>'
tRp3346
ag3
(g5
S'\xaa_\xc2>'
tRp3347
ag3
(g5
S'u\xad\xc0>'
tRp3348
ag3
(g5
S'\x05\x8f\xc0>'
tRp3349
ag3
(g5
S'%\x98\xbe>'
tRp3350
ag3
(g5
S'\xc3\x81\xbe>'
tRp3351
ag3
(g5
S'\xf2m\xbe>'
tRp3352
ag3
(g5
S'\xf4\xdb\xbe>'
tRp3353
ag3
(g5
S'S\n\xbf>'
tRp3354
ag3
(g5
S'\x85\x11\xbd>'
tRp3355
ag3
(g5
S'^\x96\xbe>'
tRp3356
ag3
(g5
S'\x04N\xbe>'
tRp3357
ag3
(g5
S'r\xe5\xbc>'
tRp3358
ag3
(g5
S'Cp\xbd>'
tRp3359
ag3
(g5
S'\x88l\xbc>'
tRp3360
ag3
(g5
S'\xb8\x96\xbc>'
tRp3361
ag3
(g5
S'\x8a\xf3\xbb>'
tRp3362
ag3
(g5
S'\xe0{\xbc>'
tRp3363
ag3
(g5
S'\xa8`\xbb>'
tRp3364
ag3
(g5
S'a\xbe\xba>'
tRp3365
ag3
(g5
S'\x92\x9d\xba>'
tRp3366
ag3
(g5
S'd\xf9\xbb>'
tRp3367
ag3
(g5
S'!\x12\xbb>'
tRp3368
ag3
(g5
S'g\xbd\xbb>'
tRp3369
ag3
(g5
S'VV\xba>'
tRp3370
ag3
(g5
S'\xc2J\xb9>'
tRp3371
ag3
(g5
S'F\xdb\xb8>'
tRp3372
ag3
(g5
S'\xe1\xba\xb7>'
tRp3373
ag3
(g5
S'\\:\xb8>'
tRp3374
ag3
(g5
S'\xd3\xc3\xb7>'
tRp3375
ag3
(g5
S'\xc9\xec\xb6>'
tRp3376
ag3
(g5
S'JZ\xb6>'
tRp3377
ag3
(g5
S'w\xf8\xb6>'
tRp3378
ag3
(g5
S'\xfa\xda\xb6>'
tRp3379
ag3
(g5
S'\x9e>\xb6>'
tRp3380
ag3
(g5
S'%\xb1\xb6>'
tRp3381
ag3
(g5
S'\xe5\xd3\xb7>'
tRp3382
ag3
(g5
S'\xe2O\xb6>'
tRp3383
ag3
(g5
S'\x12l\xb6>'
tRp3384
ag3
(g5
S'\x81C\xb7>'
tRp3385
ag3
(g5
S'\xe2\xc8\xb6>'
tRp3386
ag3
(g5
S'\x08>\xb6>'
tRp3387
ag3
(g5
S'z4\xb6>'
tRp3388
ag3
(g5
S'\xbd\xca\xb5>'
tRp3389
ag3
(g5
S'R?\xb4>'
tRp3390
ag3
(g5
S'H\xca\xb4>'
tRp3391
ag3
(g5
S'\x97F\xb5>'
tRp3392
ag3
(g5
S'\x0es\xb4>'
tRp3393
ag3
(g5
S'\x052\xb4>'
tRp3394
ag3
(g5
S'?\x83\xb3>'
tRp3395
ag3
(g5
S'\x85\xcd\xb3>'
tRp3396
ag3
(g5
S'\xa2\xf2\xb2>'
tRp3397
ag3
(g5
S'\x9e\x14\xb3>'
tRp3398
ag3
(g5
S'\xb6\xb6\xb3>'
tRp3399
ag3
(g5
S'+\x8c\xb3>'
tRp3400
ag3
(g5
S'N\xea\xb3>'
tRp3401
ag3
(g5
S'\x1a\x82\xb4>'
tRp3402
ag3
(g5
S'\x12G\xb3>'
tRp3403
ag3
(g5
S'\x12\xcf\xb2>'
tRp3404
ag3
(g5
S'\x93\x03\xb2>'
tRp3405
ag3
(g5
S'\x1b\xe0\xb1>'
tRp3406
ag3
(g5
S'\xc3\xc7\xb2>'
tRp3407
ag3
(g5
S'\x80F\xb1>'
tRp3408
ag3
(g5
S'\x06\xd6\xb2>'
tRp3409
ag3
(g5
S'\xe6\x96\xb1>'
tRp3410
ag3
(g5
S'x\xc4\xb1>'
tRp3411
ag3
(g5
S'3{\xb1>'
tRp3412
ag3
(g5
S')y\xb1>'
tRp3413
ag3
(g5
S'\xca(\xb1>'
tRp3414
ag3
(g5
S'w\x0b\xb1>'
tRp3415
ag3
(g5
S'\x04j\xb1>'
tRp3416
ag3
(g5
S'9r\xb2>'
tRp3417
ag3
(g5
S'Jc\xb1>'
tRp3418
ag3
(g5
S'Z \xb1>'
tRp3419
ag3
(g5
S'\x06\xf2\xb1>'
tRp3420
ag3
(g5
S'%\xb5\xb0>'
tRp3421
ag3
(g5
S'\xc1\xba\xb1>'
tRp3422
ag3
(g5
S'\xa7\xc0\xb0>'
tRp3423
ag3
(g5
S'ut\xb2>'
tRp3424
ag3
(g5
S'|u\xb2>'
tRp3425
ag3
(g5
S'|\xba\xb2>'
tRp3426
ag3
(g5
S'I\xa1\xb2>'
tRp3427
ag3
(g5
S'\x91\xae\xb1>'
tRp3428
ag3
(g5
S'\xa4\xab\xb2>'
tRp3429
ag3
(g5
S'%\xd3\xb2>'
tRp3430
ag3
(g5
S'\x97\xb8\xb1>'
tRp3431
ag3
(g5
S'\x07\x19\xb5>'
tRp3432
ag3
(g5
S"'s\xb6>"
tRp3433
ag3
(g5
S'o\xa0\xb3>'
tRp3434
ag3
(g5
S'\xfe\x1a\xb2>'
tRp3435
ag3
(g5
S'jF\xb5>'
tRp3436
ag3
(g5
S'\xf8\x12\xb4>'
tRp3437
ag3
(g5
S'\x04\x91\xb0>'
tRp3438
ag3
(g5
S'\x12\xfa\xb1>'
tRp3439
ag3
(g5
S"\xc9'\xb5>"
tRp3440
ag3
(g5
S'\xd0h\xaf>'
tRp3441
ag3
(g5
S'U\xd1\xb2>'
tRp3442
ag3
(g5
S'\x98!\xb3>'
tRp3443
ag3
(g5
S'\x7f\xa0\xb4>'
tRp3444
ag3
(g5
S'\x1d%\xb4>'
tRp3445
ag3
(g5
S'\x1b\x90\xb5>'
tRp3446
ag3
(g5
S'b\xb2\xb2>'
tRp3447
ag3
(g5
S'r\xc5\xae>'
tRp3448
ag3
(g5
S'\xd1\xac\xaf>'
tRp3449
ag3
(g5
S'\x1d\xd6\xb2>'
tRp3450
ag3
(g5
S'\xf1\xac\xb1>'
tRp3451
ag3
(g5
S'\x06h\xb1>'
tRp3452
ag3
(g5
S'\xa6\x16\xaf>'
tRp3453
ag3
(g5
S'\xf0]\xac>'
tRp3454
ag3
(g5
S'\x89l\xab>'
tRp3455
ag3
(g5
S'\x0fF\xae>'
tRp3456
ag3
(g5
S'^\xf3\xad>'
tRp3457
ag3
(g5
S'\xa8\xa3\xad>'
tRp3458
ag3
(g5
S'\xbc\xd6\xae>'
tRp3459
ag3
(g5
S'\xd4\xfe\xaf>'
tRp3460
ag3
(g5
S'/\x18\xad>'
tRp3461
ag3
(g5
S'C5\xad>'
tRp3462
ag3
(g5
S'\xdf\x14\xac>'
tRp3463
ag3
(g5
S'\xeeL\xad>'
tRp3464
ag3
(g5
S'd\x10\xad>'
tRp3465
ag3
(g5
S'\x17\xbe\xad>'
tRp3466
ag3
(g5
S')\x17\xae>'
tRp3467
ag3
(g5
S'\xe1\xac\xad>'
tRp3468
ag3
(g5
S'\x13\x8f\xb0>'
tRp3469
ag3
(g5
S'\xeau\xb0>'
tRp3470
ag3
(g5
S'\x9f$\xb0>'
tRp3471
ag3
(g5
S'\xd6\xbe\xae>'
tRp3472
ag3
(g5
S'\xb4\xeb\xae>'
tRp3473
ag3
(g5
S'\xc78\xaf>'
tRp3474
ag3
(g5
S'+\x9c\xb0>'
tRp3475
ag3
(g5
S'q\x92\xae>'
tRp3476
ag3
(g5
S'\x88d\xae>'
tRp3477
ag3
(g5
S'\x16\xea\xaf>'
tRp3478
ag3
(g5
S'y:\xad>'
tRp3479
ag3
(g5
S'\xa8\xe7\xad>'
tRp3480
ag3
(g5
S')\xb9\xac>'
tRp3481
ag3
(g5
S'\xa0\x94\xae>'
tRp3482
ag3
(g5
S'\xb2k\xac>'
tRp3483
ag3
(g5
S'\n\x98\xaa>'
tRp3484
ag3
(g5
S'Dw\xad>'
tRp3485
ag3
(g5
S'Z\xb0\xaa>'
tRp3486
ag3
(g5
S'd\x95\xaa>'
tRp3487
ag3
(g5
S'\x0c\xe2\xaa>'
tRp3488
ag3
(g5
S'\xf66\xaa>'
tRp3489
ag3
(g5
S'\xa93\xa9>'
tRp3490
ag3
(g5
S'\x0cc\xac>'
tRp3491
ag3
(g5
S'\ne\xa9>'
tRp3492
ag3
(g5
S'm6\xa9>'
tRp3493
ag3
(g5
S'?,\xa9>'
tRp3494
ag3
(g5
S'We\xa8>'
tRp3495
ag3
(g5
S'\x8c$\xa8>'
tRp3496
ag3
(g5
S'\xa5\x98\xa7>'
tRp3497
ag3
(g5
S'\x83\xb0\xa8>'
tRp3498
ag3
(g5
S'S\x1a\xa9>'
tRp3499
ag3
(g5
S'\x08\x84\xa6>'
tRp3500
ag3
(g5
S'\x1f\xed\xa6>'
tRp3501
ag3
(g5
S'\xe5y\xa7>'
tRp3502
ag3
(g5
S'-[\xa5>'
tRp3503
ag3
(g5
S'\xaa\x98\xa4>'
tRp3504
ag3
(g5
S'\x14\xfc\xa6>'
tRp3505
ag3
(g5
S'\xf4,\xa5>'
tRp3506
ag3
(g5
S'1z\xa6>'
tRp3507
ag3
(g5
S'\xc9&\xa6>'
tRp3508
ag3
(g5
S'{\xe4\xa5>'
tRp3509
ag3
(g5
S'5\xee\xa5>'
tRp3510
ag3
(g5
S"5'\xa5>"
tRp3511
ag3
(g5
S'W \xa6>'
tRp3512
ag3
(g5
S';)\xa7>'
tRp3513
ag3
(g5
S'\xb2\xa1\xa6>'
tRp3514
ag3
(g5
S'\xf8\xc6\xa8>'
tRp3515
ag3
(g5
S'\xbf\xb4\xa6>'
tRp3516
ag3
(g5
S'\xa6e\xa7>'
tRp3517
ag3
(g5
S'\xdf\xe6\xa6>'
tRp3518
ag3
(g5
S'\x8e\xe2\xa8>'
tRp3519
ag3
(g5
S'0J\xa6>'
tRp3520
ag3
(g5
S'\x82_\xa9>'
tRp3521
ag3
(g5
S'\x8b#\xa7>'
tRp3522
ag3
(g5
S'fq\xa7>'
tRp3523
ag3
(g5
S'm`\xa7>'
tRp3524
ag3
(g5
S'e\x92\xa5>'
tRp3525
ag3
(g5
S'\xed\xcf\xa6>'
tRp3526
ag3
(g5
S'\xb8\xef\xa7>'
tRp3527
ag3
(g5
S'\x9c\xa0\xa7>'
tRp3528
ag3
(g5
S'o\xc0\xa5>'
tRp3529
ag3
(g5
S'\x08R\xa6>'
tRp3530
ag3
(g5
S' \xee\xa3>'
tRp3531
ag3
(g5
S'\xddD\xa4>'
tRp3532
ag3
(g5
S'\x96A\xa2>'
tRp3533
ag3
(g5
S'A\t\xa5>'
tRp3534
ag3
(g5
S'\xdfR\xa3>'
tRp3535
ag3
(g5
S'\x9b\xc4\xa2>'
tRp3536
ag3
(g5
S'\x8f\xd8\xa1>'
tRp3537
ag3
(g5
S'\xac\xdc\xa2>'
tRp3538
ag3
(g5
S'h\x92\xa0>'
tRp3539
ag3
(g5
S'\xe8\x11\xa3>'
tRp3540
ag3
(g5
S'u\xd4\xa0>'
tRp3541
ag3
(g5
S'\xd3\xf4\x9f>'
tRp3542
ag3
(g5
S'\x18\xb8\xa0>'
tRp3543
ag3
(g5
S'\x98=\xa1>'
tRp3544
ag3
(g5
S'\x8b\x8a\xa1>'
tRp3545
ag3
(g5
S'\x93/\xa0>'
tRp3546
ag3
(g5
S'&\xcd\x9f>'
tRp3547
ag3
(g5
S'E\xd2\xa0>'
tRp3548
ag3
(g5
S'\xf0\xe3\x9f>'
tRp3549
ag3
(g5
S'\xedD\x9f>'
tRp3550
ag3
(g5
S'\xfeE\xa0>'
tRp3551
ag3
(g5
S'\x82R\x9f>'
tRp3552
ag3
(g5
S'\xd7l\x9f>'
tRp3553
ag3
(g5
S';\x80\xa0>'
tRp3554
ag3
(g5
S'\x948\x9f>'
tRp3555
ag3
(g5
S';\xaa\xa0>'
tRp3556
ag3
(g5
S'\x10\x0f\xa0>'
tRp3557
ag3
(g5
S'\xf8\xb2\xa0>'
tRp3558
ag3
(g5
S'\xa2\xec\xa0>'
tRp3559
ag3
(g5
S'\x8d9\xa1>'
tRp3560
ag3
(g5
S'\x8c\x08\xa0>'
tRp3561
ag3
(g5
S'\x94|\xa0>'
tRp3562
ag3
(g5
S'\xb4\xca\xa1>'
tRp3563
ag3
(g5
S'\x8d\xb2\xa0>'
tRp3564
ag3
(g5
S'Pc\xa0>'
tRp3565
ag3
(g5
S'\xcd\xdd\xa0>'
tRp3566
ag3
(g5
S'\xf4\xfb\x9e>'
tRp3567
ag3
(g5
S'\x08c\x9f>'
tRp3568
ag3
(g5
S'\xc2\xd5\x9d>'
tRp3569
ag3
(g5
S'\x96\xd5\x9e>'
tRp3570
ag3
(g5
S'\xbe\x93\x9e>'
tRp3571
ag3
(g5
S'\xe1.\x9f>'
tRp3572
ag3
(g5
S'/\r\x9d>'
tRp3573
ag3
(g5
S'\\[\x9d>'
tRp3574
ag3
(g5
S'|\x1e\x9f>'
tRp3575
ag3
(g5
S'h9\x9d>'
tRp3576
ag3
(g5
S'\x03%\x9d>'
tRp3577
ag3
(g5
S'\xe1\x83\x9c>'
tRp3578
ag3
(g5
S'\x8a\x19\x9d>'
tRp3579
ag3
(g5
S'\xb7\xff\x9d>'
tRp3580
ag3
(g5
S'\x14i\x9c>'
tRp3581
ag3
(g5
S'\x0c\xb1\x9b>'
tRp3582
ag3
(g5
S'Z\xab\x9b>'
tRp3583
ag3
(g5
S's\r\x9c>'
tRp3584
ag3
(g5
S')d\x9c>'
tRp3585
ag3
(g5
S'\x0c\xe1\x9b>'
tRp3586
ag3
(g5
S'\xf4\xcb\x9c>'
tRp3587
ag3
(g5
S'\xe7)\x9d>'
tRp3588
ag3
(g5
S'\xf1\x0e\x9c>'
tRp3589
ag3
(g5
S'\xef\x14\x9b>'
tRp3590
ag3
(g5
S'\x07v\x9b>'
tRp3591
ag3
(g5
S'"!\x9a>'
tRp3592
ag3
(g5
S'\xe4*\x9b>'
tRp3593
ag3
(g5
S'\xdb6\x9b>'
tRp3594
ag3
(g5
S'\xc2\xc4\x9a>'
tRp3595
ag3
(g5
S'\nh\x9a>'
tRp3596
ag3
(g5
S'\x8b\xd3\x9a>'
tRp3597
ag3
(g5
S'\xb6\x85\x9a>'
tRp3598
ag3
(g5
S'\xe7=\x9a>'
tRp3599
ag3
(g5
S'\xd9\xca\x9a>'
tRp3600
ag3
(g5
S'\xe7P\x9b>'
tRp3601
ag3
(g5
S'\xe9\x9c\x9a>'
tRp3602
ag3
(g5
S'9P\x9a>'
tRp3603
ag3
(g5
S'\xbd\\\x9a>'
tRp3604
ag3
(g5
S'ua\x99>'
tRp3605
ag3
(g5
S'\x13\xbc\x99>'
tRp3606
ag3
(g5
S'\xde\x07\x9a>'
tRp3607
ag3
(g5
S'\xe4f\x9b>'
tRp3608
ag3
(g5
S'V\x9f\x9b>'
tRp3609
ag3
(g5
S"T'\x9b>"
tRp3610
ag3
(g5
S'\x028\x9b>'
tRp3611
ag3
(g5
S'-\xa2\x9b>'
tRp3612
ag3
(g5
S'HL\x9b>'
tRp3613
ag3
(g5
S'\n\xf8\x9b>'
tRp3614
ag3
(g5
S'W"\x9a>'
tRp3615
ag3
(g5
S'\xcf\x12\x9a>'
tRp3616
ag3
(g5
S'd\xc1\x9a>'
tRp3617
ag3
(g5
S'\x14[\x9b>'
tRp3618
ag3
(g5
S'\x85=\x9c>'
tRp3619
ag3
(g5
S'^\x16\x9b>'
tRp3620
ag3
(g5
S'\xb2\xb9\x9a>'
tRp3621
ag3
(g5
S'8\x86\x9a>'
tRp3622
ag3
(g5
S'A\xd7\x9a>'
tRp3623
ag3
(g5
S'J\x88\x9c>'
tRp3624
ag3
(g5
S'\xfe\xb1\x9b>'
tRp3625
ag3
(g5
S'\x9c\xdb\x99>'
tRp3626
ag3
(g5
S'\xcbC\x9a>'
tRp3627
ag3
(g5
S'\x0cN\x9b>'
tRp3628
ag3
(g5
S'u3\x9b>'
tRp3629
ag3
(g5
S'N\xe7\x9a>'
tRp3630
ag3
(g5
S'\xff\xf8\x99>'
tRp3631
ag3
(g5
S'\xee\x05\x9a>'
tRp3632
ag3
(g5
S'\xc1\xe9\x98>'
tRp3633
ag3
(g5
S'\xb7\x80\x99>'
tRp3634
ag3
(g5
S'C\xba\x99>'
tRp3635
ag3
(g5
S'/\xd3\x9a>'
tRp3636
ag3
(g5
S'\xa0\xc6\x9a>'
tRp3637
ag3
(g5
S'\xd7\xfb\x99>'
tRp3638
ag3
(g5
S'SK\x9b>'
tRp3639
ag3
(g5
S'\\O\x9b>'
tRp3640
ag3
(g5
S"'h\x98>"
tRp3641
ag3
(g5
S'\xfaz\x98>'
tRp3642
ag3
(g5
S'o\xdc\x98>'
tRp3643
ag3
(g5
S'\xd7,\x98>'
tRp3644
ag3
(g5
S'\xa0\x0e\x99>'
tRp3645
ag3
(g5
S'\xf4<\x99>'
tRp3646
ag3
(g5
S'm\xf9\x9b>'
tRp3647
ag3
(g5
S'\x0e\x9d\x98>'
tRp3648
ag3
(g5
S'\xd3\xff\x97>'
tRp3649
ag3
(g5
S'\xe9\x16\x99>'
tRp3650
ag3
(g5
S'<Y\x99>'
tRp3651
ag3
(g5
S'Va\x98>'
tRp3652
ag3
(g5
S'!\xba\x98>'
tRp3653
ag3
(g5
S'h\xb4\x9a>'
tRp3654
ag3
(g5
S'\xdd\x04\x99>'
tRp3655
ag3
(g5
S'\x06\x19\x98>'
tRp3656
ag3
(g5
S'\x81\xa5\x99>'
tRp3657
ag3
(g5
S'\xba\xac\x9a>'
tRp3658
ag3
(g5
S':\xe0\x99>'
tRp3659
ag3
(g5
S'7\x00\x99>'
tRp3660
ag3
(g5
S'\xb6\xd8\x99>'
tRp3661
ag3
(g5
S'#\xea\x9a>'
tRp3662
ag3
(g5
S'\xa4\xdd\x9a>'
tRp3663
ag3
(g5
S'R\xcf\x98>'
tRp3664
ag3
(g5
S'\x96B\x99>'
tRp3665
ag3
(g5
S'\xe79\x98>'
tRp3666
ag3
(g5
S'\x98\x94\x98>'
tRp3667
ag3
(g5
S'\xa0\x10\x9a>'
tRp3668
ag3
(g5
S'^\x01\x99>'
tRp3669
ag3
(g5
S'\x19c\x98>'
tRp3670
ag3
(g5
S'\xa9\xd0\x99>'
tRp3671
ag3
(g5
S'\xa5T\x98>'
tRp3672
ag3
(g5
S'\xe7\xe5\x98>'
tRp3673
ag3
(g5
S'+\xe7\x98>'
tRp3674
ag3
(g5
S'\xdd1\x99>'
tRp3675
ag3
(g5
S'`\x17\x97>'
tRp3676
ag3
(g5
S'\xa8\xff\x98>'
tRp3677
ag3
(g5
S'P\xac\x96>'
tRp3678
ag3
(g5
S'\xa8}\x98>'
tRp3679
ag3
(g5
S'#\xf3\x98>'
tRp3680
ag3
(g5
S'\x9bn\x99>'
tRp3681
ag3
(g5
S'(\xfa\x98>'
tRp3682
ag3
(g5
S'\r:\x98>'
tRp3683
ag3
(g5
S'\xcf\xda\x97>'
tRp3684
ag3
(g5
S'\x9e)\x96>'
tRp3685
ag3
(g5
S'\x0e\xbc\x97>'
tRp3686
ag3
(g5
S'cB\x97>'
tRp3687
ag3
(g5
S'd\xa6\x99>'
tRp3688
ag3
(g5
S'%\xb2\x9b>'
tRp3689
ag3
(g5
S'\x80h\x9b>'
tRp3690
ag3
(g5
S'P\xd2\x9b>'
tRp3691
ag3
(g5
S'\x92q\x9a>'
tRp3692
ag3
(g5
S'\xdb\x07\x9d>'
tRp3693
ag3
(g5
S'm\xa6\x9d>'
tRp3694
ag3
(g5
S'\xcd\xa9\x9c>'
tRp3695
ag3
(g5
S'\xfc\xa0\xa1>'
tRp3696
ag3
(g5
S'\xbb \x99>'
tRp3697
ag3
(g5
S'\x91Z\x9e>'
tRp3698
ag3
(g5
S'i\xd5\x98>'
tRp3699
ag3
(g5
S'}+\x9b>'
tRp3700
ag3
(g5
S'\xf4\x04\x9a>'
tRp3701
ag3
(g5
S':`\x9b>'
tRp3702
ag3
(g5
S'Nt\x96>'
tRp3703
ag3
(g5
S'7\xf8\x9a>'
tRp3704
ag3
(g5
S'\x90(\x99>'
tRp3705
ag3
(g5
S'\xd1\x97\x9b>'
tRp3706
ag3
(g5
S'\xc5\xab\x9c>'
tRp3707
ag3
(g5
S'\xec\xa7\x97>'
tRp3708
ag3
(g5
S';\xba\x99>'
tRp3709
ag3
(g5
S'}\x12\x98>'
tRp3710
ag3
(g5
S'Dd\x96>'
tRp3711
ag3
(g5
S'\x99\xaa\x9e>'
tRp3712
ag3
(g5
S'\xd9\xea\x97>'
tRp3713
ag3
(g5
S'\x88\xa7\x9a>'
tRp3714
ag3
(g5
S'\xe7H\x94>'
tRp3715
ag3
(g5
S'\xfa\xf9\x95>'
tRp3716
ag3
(g5
S'\xbe\xf0\x9a>'
tRp3717
ag3
(g5
S'\x83\x0b\x98>'
tRp3718
ag3
(g5
S'%\xba\x95>'
tRp3719
ag3
(g5
S'H\x85\x9b>'
tRp3720
ag3
(g5
S'\xcd\x08\x9a>'
tRp3721
ag3
(g5
S'\xfd\xf8\x95>'
tRp3722
ag3
(g5
S'L\xec\x97>'
tRp3723
ag3
(g5
S'g}\x9a>'
tRp3724
ag3
(g5
S'\x1d\xb0\x98>'
tRp3725
ag3
(g5
S'\xd7_\x96>'
tRp3726
ag3
(g5
S'\x965\x95>'
tRp3727
ag3
(g5
S'\xb0\x0e\x98>'
tRp3728
ag3
(g5
S'\xadO\x96>'
tRp3729
ag3
(g5
S'\xee\t\x96>'
tRp3730
ag3
(g5
S"'\x95\x96>"
tRp3731
ag3
(g5
S'o\xbf\x95>'
tRp3732
ag3
(g5
S'%D\x95>'
tRp3733
ag3
(g5
S'j\xc9\x94>'
tRp3734
ag3
(g5
S'\x96\x82\x91>'
tRp3735
ag3
(g5
S'%\xe7\x95>'
tRp3736
ag3
(g5
S'i \x93>'
tRp3737
ag3
(g5
S'\x84\x8d\x94>'
tRp3738
ag3
(g5
S'\xb9\x97\x93>'
tRp3739
ag3
(g5
S'\xd1n\x92>'
tRp3740
ag3
(g5
S'\x17Y\x93>'
tRp3741
ag3
(g5
S'\x17m\x95>'
tRp3742
ag3
(g5
S'\xc4O\x91>'
tRp3743
ag3
(g5
S'\xe5\x98\x93>'
tRp3744
ag3
(g5
S'H\x07\x92>'
tRp3745
ag3
(g5
S'\xa9\x1c\x93>'
tRp3746
ag3
(g5
S'\xe3\x8c\x92>'
tRp3747
ag3
(g5
S'\x04,\x93>'
tRp3748
ag3
(g5
S'\xe3\xa9\x90>'
tRp3749
ag3
(g5
S'/\x0f\x93>'
tRp3750
ag3
(g5
S'\x83\xb6\x92>'
tRp3751
ag3
(g5
S'\x90\t\x92>'
tRp3752
ag3
(g5
S's\x1d\x91>'
tRp3753
ag3
(g5
S'\xaa\xbd\x90>'
tRp3754
ag3
(g5
S'\x97;\x8f>'
tRp3755
ag3
(g5
S'\x8f\xb2\x8f>'
tRp3756
ag3
(g5
S'#\xd9\x8e>'
tRp3757
ag3
(g5
S'\x88\x00\x8f>'
tRp3758
ag3
(g5
S'G~\x8e>'
tRp3759
ag3
(g5
S'K\xf8\x8d>'
tRp3760
ag3
(g5
S'\x00\xc8\x8e>'
tRp3761
ag3
(g5
S'\xd6\x12\x8d>'
tRp3762
ag3
(g5
S'\xc7L\x8d>'
tRp3763
ag3
(g5
S'*\x01\x8e>'
tRp3764
ag3
(g5
S'\x12\xbf\x8d>'
tRp3765
ag3
(g5
S'VM\x8d>'
tRp3766
ag3
(g5
S'9\xc4\x8e>'
tRp3767
ag3
(g5
S'\xe4\xc9\x8d>'
tRp3768
ag3
(g5
S'\x1d\xa8\x8d>'
tRp3769
ag3
(g5
S'\xae\xfd\x8c>'
tRp3770
ag3
(g5
S':\xdb\x8e>'
tRp3771
ag3
(g5
S'\xcad\x8d>'
tRp3772
ag3
(g5
S'-H\x8e>'
tRp3773
ag3
(g5
S'\x00\xf6\x8d>'
tRp3774
ag3
(g5
S"''\x90>"
tRp3775
ag3
(g5
S'KQ\x93>'
tRp3776
ag3
(g5
S'\xaa)\x8e>'
tRp3777
ag3
(g5
S'{\x99\x8d>'
tRp3778
ag3
(g5
S'T\xb7\x8e>'
tRp3779
ag3
(g5
S'\x9e\x17\x8e>'
tRp3780
ag3
(g5
S'0(\x8f>'
tRp3781
ag3
(g5
S'\x94r\x92>'
tRp3782
ag3
(g5
S'U\xfd\x8b>'
tRp3783
ag3
(g5
S'J\x8a\x90>'
tRp3784
ag3
(g5
S'\xd9b\x8e>'
tRp3785
ag3
(g5
S'\xc4\x17\x8d>'
tRp3786
ag3
(g5
S'\xc9\t\x91>'
tRp3787
ag3
(g5
S'\xbc\xd1\x8f>'
tRp3788
ag3
(g5
S'sq\x8c>'
tRp3789
ag3
(g5
S'(1\x8f>'
tRp3790
ag3
(g5
S'\x12D\x91>'
tRp3791
ag3
(g5
S'\xe7\\\x92>'
tRp3792
ag3
(g5
S'\xb2\xdb\x90>'
tRp3793
ag3
(g5
S'y\x9c\x8c>'
tRp3794
ag3
(g5
S'\xda8\x92>'
tRp3795
ag3
(g5
S'Z\xe1\x91>'
tRp3796
ag3
(g5
S'\xb47\x91>'
tRp3797
ag3
(g5
S'W\xa4\x8f>'
tRp3798
ag3
(g5
S'.\xc7\x93>'
tRp3799
ag3
(g5
S'\xdf\xc1\x90>'
tRp3800
ag3
(g5
S'\x84\xa0\x8f>'
tRp3801
ag3
(g5
S'[\xaa\x8e>'
tRp3802
ag3
(g5
S'\x04\x1d\x8e>'
tRp3803
ag3
(g5
S'%=\x91>'
tRp3804
ag3
(g5
S'\x7f$\x8e>'
tRp3805
ag3
(g5
S'\xf6`\x8f>'
tRp3806
ag3
(g5
S'Uo\x8d>'
tRp3807
ag3
(g5
S'\x0fk\x8f>'
tRp3808
ag3
(g5
S'\xbe\xaf\x8c>'
tRp3809
ag3
(g5
S'\x18M\x92>'
tRp3810
ag3
(g5
S'\xb8G\x8c>'
tRp3811
ag3
(g5
S'\xe5\x08\x8b>'
tRp3812
ag3
(g5
S'd{\x8a>'
tRp3813
ag3
(g5
S'^\xdc\x8e>'
tRp3814
ag3
(g5
S'|/\x8b>'
tRp3815
ag3
(g5
S'\xd7\x17\x8c>'
tRp3816
ag3
(g5
S'\x9bO\x8d>'
tRp3817
ag3
(g5
S'\xa4\xa3\x8c>'
tRp3818
ag3
(g5
S'q\x86\x8b>'
tRp3819
ag3
(g5
S's\x03\x8b>'
tRp3820
ag3
(g5
S"\xfe'\x8a>"
tRp3821
ag3
(g5
S'\x0b\x8d\x8a>'
tRp3822
ag3
(g5
S'\x10\xb3\x8a>'
tRp3823
ag3
(g5
S'\x1b\x0c\x8b>'
tRp3824
ag3
(g5
S'\xf4\x14\x8b>'
tRp3825
ag3
(g5
S'\x921\x8b>'
tRp3826
ag3
(g5
S'\x8d\xbb\x8a>'
tRp3827
ag3
(g5
S'\xe3\xa5\x8a>'
tRp3828
ag3
(g5
S'\xc2\x8f\x8a>'
tRp3829
ag3
(g5
S'\xd7@\x8b>'
tRp3830
ag3
(g5
S'\xe2\x17\x89>'
tRp3831
ag3
(g5
S'r_\x89>'
tRp3832
ag3
(g5
S'\xcfl\x88>'
tRp3833
ag3
(g5
S'W\x1e\x89>'
tRp3834
ag3
(g5
S'\xae\x1c\x8a>'
tRp3835
ag3
(g5
S'\xd7\xb6\x87>'
tRp3836
ag3
(g5
S'\x1b\xc7\x8a>'
tRp3837
ag3
(g5
S'hw\x88>'
tRp3838
ag3
(g5
S'\x94\xed\x87>'
tRp3839
ag3
(g5
S'\x85j\x88>'
tRp3840
ag3
(g5
S'\x0e&\x87>'
tRp3841
ag3
(g5
S'\xa0\xb7\x88>'
tRp3842
ag3
(g5
S'+\xe5\x89>'
tRp3843
ag3
(g5
S'.\xda\x88>'
tRp3844
ag3
(g5
S'\x18\xb5\x89>'
tRp3845
ag3
(g5
S'\xf4\xd4\x89>'
tRp3846
ag3
(g5
S'\xe1!\x89>'
tRp3847
ag3
(g5
S'\xa0O\x87>'
tRp3848
ag3
(g5
S'F,\x89>'
tRp3849
ag3
(g5
S'\xf2\x8e\x88>'
tRp3850
ag3
(g5
S'\x0c\x84\x88>'
tRp3851
ag3
(g5
S'8K\x87>'
tRp3852
ag3
(g5
S'\xd9\xcb\x88>'
tRp3853
ag3
(g5
S'\x81\\\x87>'
tRp3854
ag3
(g5
S'+\xfb\x88>'
tRp3855
ag3
(g5
S'!\xc7\x87>'
tRp3856
ag3
(g5
S',\xcf\x86>'
tRp3857
ag3
(g5
S'Bz\x86>'
tRp3858
ag3
(g5
S'\xa1\x90\x86>'
tRp3859
ag3
(g5
S'\xbe)\x86>'
tRp3860
ag3
(g5
S'\xc3\xc3\x87>'
tRp3861
ag3
(g5
S'%$\x86>'
tRp3862
ag3
(g5
S'\x9e\x05\x87>'
tRp3863
ag3
(g5
S'\x17\xb1\x85>'
tRp3864
ag3
(g5
S"'\xa1\x85>"
tRp3865
ag3
(g5
S'\x8a\xf8\x84>'
tRp3866
ag3
(g5
S'5\xcf\x84>'
tRp3867
ag3
(g5
S'd\x9a\x85>'
tRp3868
ag3
(g5
S'\x13\x92\x83>'
tRp3869
ag3
(g5
S'\xe1\xe5\x84>'
tRp3870
ag3
(g5
S'\xe2E\x84>'
tRp3871
ag3
(g5
S'K\x9e\x84>'
tRp3872
ag3
(g5
S'\xae\x18\x84>'
tRp3873
ag3
(g5
S'\x9f\x97\x83>'
tRp3874
ag3
(g5
S'j\x98\x82>'
tRp3875
ag3
(g5
S'R\x97\x82>'
tRp3876
ag3
(g5
S'4\x16\x82>'
tRp3877
ag3
(g5
S'\x97q\x82>'
tRp3878
ag3
(g5
S'\xd9\x1e\x82>'
tRp3879
ag3
(g5
S'\xd0W\x82>'
tRp3880
ag3
(g5
S'\xcf\xfc\x82>'
tRp3881
ag3
(g5
S'!\xb3\x82>'
tRp3882
ag3
(g5
S'R\x82\x82>'
tRp3883
ag3
(g5
S'6r\x82>'
tRp3884
ag3
(g5
S'4\x84\x81>'
tRp3885
ag3
(g5
S'\xf6\xa2\x81>'
tRp3886
ag3
(g5
S'\xcc\x18\x82>'
tRp3887
ag3
(g5
S'\xe2\xd6\x82>'
tRp3888
ag3
(g5
S';\xc4\x82>'
tRp3889
ag3
(g5
S'!\x9d\x83>'
tRp3890
ag3
(g5
S'\x05\n\x81>'
tRp3891
ag3
(g5
S'\xd6i\x81>'
tRp3892
ag3
(g5
S'=\x1c\x83>'
tRp3893
ag3
(g5
S'\xa2\x1b\x83>'
tRp3894
ag3
(g5
S'E\xcc\x81>'
tRp3895
ag3
(g5
S'\xc1R\x82>'
tRp3896
ag3
(g5
S'h\xee\x81>'
tRp3897
ag3
(g5
S'G\x8b\x82>'
tRp3898
ag3
(g5
S'\xe7*\x82>'
tRp3899
ag3
(g5
S'\x9aI\x82>'
tRp3900
ag3
(g5
S'\x88\x14\x83>'
tRp3901
ag3
(g5
S'jv\x82>'
tRp3902
ag3
(g5
S'{\x19\x82>'
tRp3903
ag3
(g5
S'\xca&\x83>'
tRp3904
ag3
(g5
S'\xc0\xc4\x81>'
tRp3905
ag3
(g5
S'"G\x83>'
tRp3906
ag3
(g5
S'\x94\xcd\x82>'
tRp3907
ag3
(g5
S'\xacZ\x82>'
tRp3908
ag3
(g5
S'\x11\x1e\x83>'
tRp3909
ag3
(g5
S'\xd0\xf2\x84>'
tRp3910
ag3
(g5
S'8\xfa\x82>'
tRp3911
ag3
(g5
S's\xaf\x83>'
tRp3912
ag3
(g5
S'+=\x83>'
tRp3913
ag3
(g5
S'O\xdd\x82>'
tRp3914
ag3
(g5
S'\xfc\xbf\x83>'
tRp3915
ag3
(g5
S'\xd3\xf9\x81>'
tRp3916
ag3
(g5
S'wH\x82>'
tRp3917
ag3
(g5
S'\x94\x17\x82>'
tRp3918
ag3
(g5
S'$t\x81>'
tRp3919
ag3
(g5
S'OU\x81>'
tRp3920
ag3
(g5
S'\x11\x99\x82>'
tRp3921
ag3
(g5
S'\xa3\xe0\x82>'
tRp3922
ag3
(g5
S'\xfb\xc9\x82>'
tRp3923
ag3
(g5
S'\x8f\xf6\x80>'
tRp3924
ag3
(g5
S']l\x80>'
tRp3925
ag3
(g5
S'F-\x81>'
tRp3926
ag3
(g5
S'\xd5\x82\x81>'
tRp3927
ag3
(g5
S'\x8a\xbe\x80>'
tRp3928
ag3
(g5
S'\x83\\\x7f>'
tRp3929
ag3
(g5
S'\xc7\xba\x81>'
tRp3930
ag3
(g5
S'75\x80>'
tRp3931
ag3
(g5
S'\xbc\xf0\x7f>'
tRp3932
ag3
(g5
S'O\xcb\x7f>'
tRp3933
ag3
(g5
S'\xcd\xb4}>'
tRp3934
ag3
(g5
S'\x9b\xfb\x80>'
tRp3935
ag3
(g5
S'\x05\x10\x7f>'
tRp3936
ag3
(g5
S'9(~>'
tRp3937
ag3
(g5
S'\x1fN\x7f>'
tRp3938
ag3
(g5
S'$b\x82>'
tRp3939
ag3
(g5
S'~\xc0\x81>'
tRp3940
ag3
(g5
S'\x14\xb1}>'
tRp3941
ag3
(g5
S'\x8c\xc6\x80>'
tRp3942
ag3
(g5
S'tW\x80>'
tRp3943
ag3
(g5
S'\xfc\xcc~>'
tRp3944
ag3
(g5
S'F\x12\x7f>'
tRp3945
ag3
(g5
S'\xac+\x81>'
tRp3946
ag3
(g5
S'TQ~>'
tRp3947
ag3
(g5
S'\xd6,\x80>'
tRp3948
ag3
(g5
S'44\x80>'
tRp3949
ag3
(g5
S'\xd9f\x80>'
tRp3950
ag3
(g5
S'\x8f\xfe~>'
tRp3951
ag3
(g5
S'\xdc=\x7f>'
tRp3952
ag3
(g5
S'\xeeo\x80>'
tRp3953
ag3
(g5
S'Eo\x7f>'
tRp3954
ag3
(g5
S'\xea\x8e\x7f>'
tRp3955
ag3
(g5
S'\xd0\xf7~>'
tRp3956
ag3
(g5
S'\x19\xa9\x81>'
tRp3957
ag3
(g5
S'\x02\x8f\x80>'
tRp3958
ag3
(g5
S'#L\x80>'
tRp3959
ag3
(g5
S'\x99\xba\x80>'
tRp3960
ag3
(g5
S'\x9b\x10\x80>'
tRp3961
ag3
(g5
S'\xd2\x84\x81>'
tRp3962
ag3
(g5
S'\xf7*\x81>'
tRp3963
ag3
(g5
S'\xbe|\x80>'
tRp3964
ag3
(g5
S'\xa0\x86\x7f>'
tRp3965
ag3
(g5
S'\x04f\x80>'
tRp3966
ag3
(g5
S'8W\x81>'
tRp3967
ag3
(g5
S']\x9a\x80>'
tRp3968
ag3
(g5
S'\xd6\x96\x7f>'
tRp3969
ag3
(g5
S'\x7f\xde\x80>'
tRp3970
ag3
(g5
S'\t\xd5\x80>'
tRp3971
ag3
(g5
S'\x82H\x80>'
tRp3972
ag3
(g5
S'/\xd2\x7f>'
tRp3973
ag3
(g5
S'/\x06\x80>'
tRp3974
ag3
(g5
S'c\xcb\x7f>'
tRp3975
ag3
(g5
S'9\xfc~>'
tRp3976
ag3
(g5
S'}_\x80>'
tRp3977
ag3
(g5
S'\xfb=~>'
tRp3978
ag3
(g5
S'wN}>'
tRp3979
ag3
(g5
S'V\xbd\x7f>'
tRp3980
ag3
(g5
S'\x12i\x7f>'
tRp3981
ag3
(g5
S'qw~>'
tRp3982
ag3
(g5
S'1X\x80>'
tRp3983
ag3
(g5
S'\x99\xa7\x7f>'
tRp3984
ag3
(g5
S'\x8b\xfc~>'
tRp3985
ag3
(g5
S'r\x8e\x7f>'
tRp3986
ag3
(g5
S'aP|>'
tRp3987
ag3
(g5
S'\xc7\xb6}>'
tRp3988
ag3
(g5
S'\x03\xe9}>'
tRp3989
ag3
(g5
S'\xf6.}>'
tRp3990
ag3
(g5
S'\x1fx|>'
tRp3991
ag3
(g5
S'`\xb9z>'
tRp3992
ag3
(g5
S'\xbd\x85|>'
tRp3993
ag3
(g5
S'v\x10{>'
tRp3994
ag3
(g5
S'\x04*z>'
tRp3995
ag3
(g5
S'g|y>'
tRp3996
ag3
(g5
S'\xa2Rz>'
tRp3997
ag3
(g5
S'N\x0cy>'
tRp3998
ag3
(g5
S'\xf8fx>'
tRp3999
ag3
(g5
S'\xf8\xd1x>'
tRp4000
ag3
(g5
S'\xfb\x1fy>'
tRp4001
ag3
(g5
S'\x85\xe5w>'
tRp4002
ag3
(g5
S'7\xafz>'
tRp4003
ag3
(g5
S'-\xddx>'
tRp4004
ag3
(g5
S'YQy>'
tRp4005
ag3
(g5
S'\xd3\xccy>'
tRp4006
ag3
(g5
S'\xb35x>'
tRp4007
ag3
(g5
S'\xb0\xfby>'
tRp4008
aa(lp4009
g3
(g5
S'\xbdz\xf0@'
tRp4010
ag3
(g5
S'\x9b\x1d%A'
tRp4011
ag3
(g5
S')\xe13A'
tRp4012
ag3
(g5
S'\xbd\x16<A'
tRp4013
ag3
(g5
S'b\x85@A'
tRp4014
ag3
(g5
S'\x0e\x03CA'
tRp4015
ag3
(g5
S'\xc9\x7fCA'
tRp4016
ag3
(g5
S'\xb9\x19CA'
tRp4017
ag3
(g5
S'\xc8\xd7AA'
tRp4018
ag3
(g5
S'Z\xb7?A'
tRp4019
ag3
(g5
S'N\xbf=A'
tRp4020
ag3
(g5
S'5\xa4;A'
tRp4021
ag3
(g5
S'y\x9b9A'
tRp4022
ag3
(g5
S'\xbf}7A'
tRp4023
ag3
(g5
S'q_5A'
tRp4024
ag3
(g5
S'\x8f\x8d3A'
tRp4025
ag3
(g5
S'G\x012A'
tRp4026
ag3
(g5
S'\x19\xdb0A'
tRp4027
ag3
(g5
S'\x10\xce/A'
tRp4028
ag3
(g5
S'\xa4\xe2.A'
tRp4029
ag3
(g5
S'\x93U.A'
tRp4030
ag3
(g5
S'ji-A'
tRp4031
ag3
(g5
S'\x86!-A'
tRp4032
ag3
(g5
S'\xb4~,A'
tRp4033
ag3
(g5
S'\xfeh,A'
tRp4034
ag3
(g5
S'\xc9-,A'
tRp4035
ag3
(g5
S'\xc5\xe1+A'
tRp4036
ag3
(g5
S'\xc9\x9d+A'
tRp4037
ag3
(g5
S'E\x93+A'
tRp4038
ag3
(g5
S'\xf1\xb9+A'
tRp4039
ag3
(g5
S'\x0c\x82+A'
tRp4040
ag3
(g5
S'B\x86+A'
tRp4041
ag3
(g5
S'\xd0\xbb+A'
tRp4042
ag3
(g5
S'So+A'
tRp4043
ag3
(g5
S'\xc4\xbc+A'
tRp4044
ag3
(g5
S'\x9b\xf4+A'
tRp4045
ag3
(g5
S'\x12\x04,A'
tRp4046
ag3
(g5
S'\xa77,A'
tRp4047
ag3
(g5
S'~\\,A'
tRp4048
ag3
(g5
S'j\xb2,A'
tRp4049
ag3
(g5
S'\x1a\xcd,A'
tRp4050
ag3
(g5
S'\x1b#-A'
tRp4051
ag3
(g5
S'\xad\xab-A'
tRp4052
ag3
(g5
S'\xae\xfb-A'
tRp4053
ag3
(g5
S'\x8b,.A'
tRp4054
ag3
(g5
S's\xb9.A'
tRp4055
ag3
(g5
S'F]/A'
tRp4056
ag3
(g5
S'\xae\xe1/A'
tRp4057
ag3
(g5
S'\xc9.0A'
tRp4058
ag3
(g5
S'\xe0\x9f0A'
tRp4059
ag3
(g5
S'\xa6\xf40A'
tRp4060
ag3
(g5
S'b\x9d1A'
tRp4061
ag3
(g5
S'\xda%2A'
tRp4062
ag3
(g5
S'\xb7\xd32A'
tRp4063
ag3
(g5
S'\x02&3A'
tRp4064
ag3
(g5
S'\x14\xa63A'
tRp4065
ag3
(g5
S'fn4A'
tRp4066
ag3
(g5
S'\xc9~5A'
tRp4067
ag3
(g5
S')\x1d6A'
tRp4068
ag3
(g5
S'b\t7A'
tRp4069
ag3
(g5
S'1\xa07A'
tRp4070
ag3
(g5
S'\\\xce8A'
tRp4071
ag3
(g5
S'\x99\xd59A'
tRp4072
ag3
(g5
S'\xfc\xfe:A'
tRp4073
ag3
(g5
S'\xbe\x9b;A'
tRp4074
ag3
(g5
S'T\x0b=A'
tRp4075
ag3
(g5
S'v\xfc=A'
tRp4076
ag3
(g5
S'\x7fF?A'
tRp4077
ag3
(g5
S'\x8b\x0b@A'
tRp4078
ag3
(g5
S'\x96+AA'
tRp4079
ag3
(g5
S'\xa1\xabBA'
tRp4080
ag3
(g5
S'\x98\x8bCA'
tRp4081
ag3
(g5
S'-sEA'
tRp4082
ag3
(g5
S'\xb4\xb4FA'
tRp4083
ag3
(g5
S'\xc8hHA'
tRp4084
ag3
(g5
S'|\x9cIA'
tRp4085
ag3
(g5
S'\xec1KA'
tRp4086
ag3
(g5
S'\x9e\xe1LA'
tRp4087
ag3
(g5
S'N\xa1NA'
tRp4088
ag3
(g5
S'b\xa3PA'
tRp4089
ag3
(g5
S'\xef\xd0QA'
tRp4090
ag3
(g5
S'f\x1aTA'
tRp4091
ag3
(g5
S'\xee\xecUA'
tRp4092
ag3
(g5
S'\xf0\x8bWA'
tRp4093
ag3
(g5
S'6~YA'
tRp4094
ag3
(g5
S'Y\xbe[A'
tRp4095
ag3
(g5
S'\xe1\xc5]A'
tRp4096
ag3
(g5
S'K\x98`A'
tRp4097
ag3
(g5
S'\xa5\xf2bA'
tRp4098
ag3
(g5
S'\xc7ceA'
tRp4099
ag3
(g5
S'\xe50gA'
tRp4100
ag3
(g5
S'\x84miA'
tRp4101
ag3
(g5
S'\xbfkkA'
tRp4102
ag3
(g5
S'-\x96mA'
tRp4103
ag3
(g5
S'`ioA'
tRp4104
ag3
(g5
S"'\xc4qA"
tRp4105
ag3
(g5
S'\x9b\x90tA'
tRp4106
ag3
(g5
S'\x1c\x9ewA'
tRp4107
ag3
(g5
S'\xa3\xe1yA'
tRp4108
ag3
(g5
S'\xbd!}A'
tRp4109
ag3
(g5
S'\x8dz\x7fA'
tRp4110
ag3
(g5
S'8\x01\x81A'
tRp4111
ag3
(g5
S'\x98b\x82A'
tRp4112
ag3
(g5
S'\xe1q\x83A'
tRp4113
ag3
(g5
S'\xb4\xae\x84A'
tRp4114
ag3
(g5
S'\xc1\xb5\x85A'
tRp4115
ag3
(g5
S'\xd8\xa7\x86A'
tRp4116
ag3
(g5
S'm;\x88A'
tRp4117
ag3
(g5
S'\x05\xf9\x88A'
tRp4118
ag3
(g5
S'\xdc1\x8aA'
tRp4119
ag3
(g5
S'\x9aX\x8bA'
tRp4120
ag3
(g5
S'\x8f\xcd\x8cA'
tRp4121
ag3
(g5
S'\xf8\xc1\x8dA'
tRp4122
ag3
(g5
S'\x17\xe9\x8eA'
tRp4123
ag3
(g5
S'\xc3\x19\x90A'
tRp4124
ag3
(g5
S'\x93~\x91A'
tRp4125
ag3
(g5
S'+\x8b\x92A'
tRp4126
ag3
(g5
S's\xc9\x93A'
tRp4127
ag3
(g5
S'\xb2\x85\x94A'
tRp4128
ag3
(g5
S'\\d\x95A'
tRp4129
ag3
(g5
S'\xb6Y\x96A'
tRp4130
ag3
(g5
S'l\x9f\x97A'
tRp4131
ag3
(g5
S'\x87\xc6\x98A'
tRp4132
ag3
(g5
S'\x1f\t\x9aA'
tRp4133
ag3
(g5
S'\x9f\x9d\x9aA'
tRp4134
ag3
(g5
S'\xa4\xff\x9bA'
tRp4135
ag3
(g5
S'\xb3~\x9cA'
tRp4136
ag3
(g5
S'\x06\xba\x9dA'
tRp4137
ag3
(g5
S'N\xc1\x9eA'
tRp4138
ag3
(g5
S'?\r\x9fA'
tRp4139
ag3
(g5
S'\xfeb\xa0A'
tRp4140
ag3
(g5
S'Xm\xa1A'
tRp4141
ag3
(g5
S'\xf2\x8f\xa2A'
tRp4142
ag3
(g5
S'\x8e\xe8\xa2A'
tRp4143
ag3
(g5
S'C\x1d\xa4A'
tRp4144
ag3
(g5
S'\x0c\x0c\xa5A'
tRp4145
ag3
(g5
S'\xf6\x03\xa6A'
tRp4146
ag3
(g5
S';\xa1\xa6A'
tRp4147
ag3
(g5
S'G\x7f\xa7A'
tRp4148
ag3
(g5
S'+p\xa8A'
tRp4149
ag3
(g5
S'R\xa2\xa8A'
tRp4150
ag3
(g5
S'\xefK\xaaA'
tRp4151
ag3
(g5
S'\xfa\x06\xabA'
tRp4152
ag3
(g5
S'd2\xacA'
tRp4153
ag3
(g5
S'\xab\x0f\xadA'
tRp4154
ag3
(g5
S'\xee"\xafA'
tRp4155
ag3
(g5
S'\xee\x8a\xafA'
tRp4156
ag3
(g5
S'\xb3m\xb0A'
tRp4157
ag3
(g5
S'\xd7\xa4\xb1A'
tRp4158
ag3
(g5
S'\x0c!\xb2A'
tRp4159
ag3
(g5
S'b*\xb3A'
tRp4160
ag3
(g5
S'\xdbx\xb4A'
tRp4161
ag3
(g5
S'\xe1y\xb5A'
tRp4162
ag3
(g5
S'<\xeb\xb5A'
tRp4163
ag3
(g5
S's\x83\xb7A'
tRp4164
ag3
(g5
S'/w\xb8A'
tRp4165
ag3
(g5
S'\xd6E\xb9A'
tRp4166
ag3
(g5
S'\x06\xe9\xbaA'
tRp4167
ag3
(g5
S'\xdd\xab\xbbA'
tRp4168
ag3
(g5
S'/l\xbcA'
tRp4169
ag3
(g5
S'\x16O\xbdA'
tRp4170
ag3
(g5
S'{E\xbeA'
tRp4171
ag3
(g5
S'z\xd1\xbfA'
tRp4172
ag3
(g5
S'\x17\xb9\xc0A'
tRp4173
ag3
(g5
S'\xb4\xb6\xc2A'
tRp4174
ag3
(g5
S'l\x0e\xc3A'
tRp4175
ag3
(g5
S'\xbb\x17\xc4A'
tRp4176
ag3
(g5
S'\xff\xf7\xc3A'
tRp4177
ag3
(g5
S'Wr\xc4A'
tRp4178
ag3
(g5
S'\xdf\xf9\xc5A'
tRp4179
ag3
(g5
S'\xcf\x08\xc7A'
tRp4180
ag3
(g5
S'5<\xc8A'
tRp4181
ag3
(g5
S'\x88\x9c\xc8A'
tRp4182
ag3
(g5
S'*\xec\xc8A'
tRp4183
ag3
(g5
S'\xba\n\xcaA'
tRp4184
ag3
(g5
S'\xd23\xcbA'
tRp4185
ag3
(g5
S'\x14\x97\xcbA'
tRp4186
ag3
(g5
S';2\xccA'
tRp4187
ag3
(g5
S'\xf4\xad\xcdA'
tRp4188
ag3
(g5
S'`/\xceA'
tRp4189
ag3
(g5
S'N\xd1\xceA'
tRp4190
ag3
(g5
S'F\x9e\xcfA'
tRp4191
ag3
(g5
S'\x818\xd1A'
tRp4192
ag3
(g5
S'}z\xd1A'
tRp4193
ag3
(g5
S'\xe5\n\xd2A'
tRp4194
ag3
(g5
S'^\x19\xd3A'
tRp4195
ag3
(g5
S'\x9f\x0b\xd3A'
tRp4196
ag3
(g5
S'T\xd7\xd3A'
tRp4197
ag3
(g5
S'\xc5#\xd5A'
tRp4198
ag3
(g5
S'lw\xd5A'
tRp4199
ag3
(g5
S'-\xf3\xd5A'
tRp4200
ag3
(g5
S"'\xa2\xd6A"
tRp4201
ag3
(g5
S'\xbe\xdf\xd5A'
tRp4202
ag3
(g5
S'\xe5\xf5\xd7A'
tRp4203
ag3
(g5
S'\xd5\x9d\xd7A'
tRp4204
ag3
(g5
S'\xfc\x1a\xd8A'
tRp4205
ag3
(g5
S'\xbda\xd8A'
tRp4206
ag3
(g5
S'\x02\xe1\xd9A'
tRp4207
ag3
(g5
S'\xd5N\xd9A'
tRp4208
ag3
(g5
S'n\xb8\xd9A'
tRp4209
ag3
(g5
S'=\xcc\xdaA'
tRp4210
ag3
(g5
S'\x0cz\xdbA'
tRp4211
ag3
(g5
S'1\x7f\xdbA'
tRp4212
ag3
(g5
S'\x89_\xdcA'
tRp4213
ag3
(g5
S'\xacx\xddA'
tRp4214
ag3
(g5
S'\x83\xf2\xddA'
tRp4215
ag3
(g5
S'\x10c\xddA'
tRp4216
ag3
(g5
S'\x04:\xdeA'
tRp4217
ag3
(g5
S'\xfe\xb3\xdeA'
tRp4218
ag3
(g5
S'\xb2\r\xdfA'
tRp4219
ag3
(g5
S'\xf9V\xdeA'
tRp4220
ag3
(g5
S'\x17\xe5\xdeA'
tRp4221
ag3
(g5
S'\xde\x9c\xdfA'
tRp4222
ag3
(g5
S'y_\xdfA'
tRp4223
ag3
(g5
S'3\xd9\xdfA'
tRp4224
ag3
(g5
S'{\x1b\xe0A'
tRp4225
ag3
(g5
S'\x91\x8b\xdfA'
tRp4226
ag3
(g5
S'\x19\xdb\xdfA'
tRp4227
ag3
(g5
S'\x8fp\xe0A'
tRp4228
ag3
(g5
S'\\c\xe1A'
tRp4229
ag3
(g5
S'e8\xe1A'
tRp4230
ag3
(g5
S'\xcb\xc0\xe2A'
tRp4231
ag3
(g5
S'\x08`\xe1A'
tRp4232
ag3
(g5
S'\xe7\xb9\xe1A'
tRp4233
ag3
(g5
S'\x08\x8f\xe3A'
tRp4234
ag3
(g5
S'e\xef\xe3A'
tRp4235
ag3
(g5
S'Y\x94\xe4A'
tRp4236
ag3
(g5
S"'\xf0\xe4A"
tRp4237
ag3
(g5
S'j2\xe5A'
tRp4238
ag3
(g5
S'\xf6\xb0\xe6A'
tRp4239
ag3
(g5
S'\x9aS\xe6A'
tRp4240
ag3
(g5
S'\xd4\x8a\xe5A'
tRp4241
ag3
(g5
S'-\xa7\xe4A'
tRp4242
ag3
(g5
S'u"\xe6A'
tRp4243
ag3
(g5
S'\x88|\xe6A'
tRp4244
ag3
(g5
S'\xec!\xe7A'
tRp4245
ag3
(g5
S'}\xb6\xe6A'
tRp4246
ag3
(g5
S'\xf7\xeb\xe6A'
tRp4247
ag3
(g5
S'\xcd\xaf\xe7A'
tRp4248
ag3
(g5
S'\x04?\xe8A'
tRp4249
ag3
(g5
S'\xe1o\xe7A'
tRp4250
ag3
(g5
S'\x91\x10\xe8A'
tRp4251
ag3
(g5
S'^\x1f\xe8A'
tRp4252
ag3
(g5
S'\x16F\xe7A'
tRp4253
ag3
(g5
S'\x1d\r\xe8A'
tRp4254
ag3
(g5
S'b\xa4\xe7A'
tRp4255
ag3
(g5
S'q\x9a\xe7A'
tRp4256
ag3
(g5
S'\x98]\xe8A'
tRp4257
ag3
(g5
S'7%\xe8A'
tRp4258
ag3
(g5
S'\xa2\x80\xe7A'
tRp4259
ag3
(g5
S'\x19\xdd\xe6A'
tRp4260
ag3
(g5
S'\xaah\xe8A'
tRp4261
ag3
(g5
S'\x8f\xfa\xe6A'
tRp4262
ag3
(g5
S'4\x92\xe7A'
tRp4263
ag3
(g5
S'\x1b\xf9\xe7A'
tRp4264
ag3
(g5
S'D\x8f\xe7A'
tRp4265
ag3
(g5
S'\xa2C\xe8A'
tRp4266
ag3
(g5
S'R\xd9\xe7A'
tRp4267
ag3
(g5
S'\xde\xdc\xe6A'
tRp4268
ag3
(g5
S'\xde\xc0\xe7A'
tRp4269
ag3
(g5
S'V\xe8\xe6A'
tRp4270
ag3
(g5
S'\x19\x05\xe7A'
tRp4271
ag3
(g5
S'h\xf6\xe7A'
tRp4272
ag3
(g5
S'9\xf9\xe7A'
tRp4273
ag3
(g5
S'5P\xe8A'
tRp4274
ag3
(g5
S'!\xd3\xe9A'
tRp4275
ag3
(g5
S'\xf62\xe8A'
tRp4276
ag3
(g5
S'qN\xe7A'
tRp4277
ag3
(g5
S'\xe6 \xe8A'
tRp4278
ag3
(g5
S'\xa8\x91\xe7A'
tRp4279
ag3
(g5
S'\xdd"\xe7A'
tRp4280
ag3
(g5
S'Uy\xe7A'
tRp4281
ag3
(g5
S'v\xb4\xe6A'
tRp4282
ag3
(g5
S'\x17=\xe8A'
tRp4283
ag3
(g5
S'"\xb6\xe6A'
tRp4284
ag3
(g5
S'\x13~\xe7A'
tRp4285
ag3
(g5
S'\xda5\xe7A'
tRp4286
ag3
(g5
S'gL\xe8A'
tRp4287
ag3
(g5
S'J\x11\xe9A'
tRp4288
ag3
(g5
S'\x7f2\xe9A'
tRp4289
ag3
(g5
S'o\xee\xe8A'
tRp4290
ag3
(g5
S'\xed\xf1\xe7A'
tRp4291
ag3
(g5
S'\xd2\x10\xe9A'
tRp4292
ag3
(g5
S'y\x02\xe9A'
tRp4293
ag3
(g5
S'\xd5\x86\xe8A'
tRp4294
ag3
(g5
S'^\x84\xe8A'
tRp4295
ag3
(g5
S'w8\xe8A'
tRp4296
ag3
(g5
S'\x86t\xe9A'
tRp4297
ag3
(g5
S'\xcd\xb1\xe8A'
tRp4298
ag3
(g5
S'N\xdb\xe8A'
tRp4299
ag3
(g5
S'Z\xa2\xe9A'
tRp4300
ag3
(g5
S'\xd7\xac\xe7A'
tRp4301
ag3
(g5
S'\x0fk\xe9A'
tRp4302
ag3
(g5
S'\xf0G\xe9A'
tRp4303
ag3
(g5
S'\xac\xb4\xe9A'
tRp4304
ag3
(g5
S'D\xaa\xe9A'
tRp4305
ag3
(g5
S'\x13/\xeaA'
tRp4306
ag3
(g5
S'\x9f~\xebA'
tRp4307
ag3
(g5
S'\xa6\x05\xeaA'
tRp4308
ag3
(g5
S'\x02W\xebA'
tRp4309
ag3
(g5
S'`/\xe9A'
tRp4310
ag3
(g5
S'V\xb9\xeaA'
tRp4311
ag3
(g5
S'\x9aS\xe9A'
tRp4312
ag3
(g5
S'D\xf2\xe8A'
tRp4313
ag3
(g5
S'\xa5\xc2\xe9A'
tRp4314
ag3
(g5
S'\xf8G\xe9A'
tRp4315
ag3
(g5
S'\xcf\xda\xe9A'
tRp4316
ag3
(g5
S'\xf1\xa2\xeaA'
tRp4317
ag3
(g5
S'J\xc9\xe9A'
tRp4318
ag3
(g5
S'z\x10\xe8A'
tRp4319
ag3
(g5
S'9\x8c\xe9A'
tRp4320
ag3
(g5
S'\xa6\x12\xe8A'
tRp4321
ag3
(g5
S'`/\xe8A'
tRp4322
ag3
(g5
S'V\xd2\xe8A'
tRp4323
ag3
(g5
S'\x1a\xb4\xe9A'
tRp4324
ag3
(g5
S'V\x81\xe8A'
tRp4325
ag3
(g5
S'\x8b\xd6\xe8A'
tRp4326
ag3
(g5
S'_N\xe9A'
tRp4327
ag3
(g5
S'\xc1s\xe8A'
tRp4328
ag3
(g5
S',=\xe8A'
tRp4329
ag3
(g5
S'p^\xe9A'
tRp4330
ag3
(g5
S'Z\x07\xeaA'
tRp4331
ag3
(g5
S'\x7f\x19\xe8A'
tRp4332
ag3
(g5
S'3\xc7\xe8A'
tRp4333
ag3
(g5
S'Q\xea\xe8A'
tRp4334
ag3
(g5
S'\xa4p\xe8A'
tRp4335
ag3
(g5
S'`g\xe8A'
tRp4336
ag3
(g5
S'->\xe8A'
tRp4337
ag3
(g5
S'\x12\x82\xe8A'
tRp4338
ag3
(g5
S'\x83l\xe8A'
tRp4339
ag3
(g5
S'\xaf\xb6\xe9A'
tRp4340
ag3
(g5
S'K~\xe8A'
tRp4341
ag3
(g5
S'\x14}\xe9A'
tRp4342
ag3
(g5
S'r\xf6\xe8A'
tRp4343
ag3
(g5
S'^\xc0\xe8A'
tRp4344
ag3
(g5
S'\\\xbe\xe8A'
tRp4345
ag3
(g5
S'\xf4\x06\xeaA'
tRp4346
ag3
(g5
S'\xee2\xeaA'
tRp4347
ag3
(g5
S'\xd2\r\xeaA'
tRp4348
ag3
(g5
S'\xcc|\xe9A'
tRp4349
ag3
(g5
S'\xc1\xc6\xe8A'
tRp4350
ag3
(g5
S'|\xe9\xe8A'
tRp4351
ag3
(g5
S'\x1d_\xe9A'
tRp4352
ag3
(g5
S';\xa9\xe9A'
tRp4353
ag3
(g5
S'\xc6`\xe9A'
tRp4354
ag3
(g5
S'\t\xb7\xe7A'
tRp4355
ag3
(g5
S'\x18\x98\xe9A'
tRp4356
ag3
(g5
S'\x0f\x90\xe9A'
tRp4357
ag3
(g5
S'D\xad\xe7A'
tRp4358
ag3
(g5
S'\x81\xd7\xe9A'
tRp4359
ag3
(g5
S'\x83\xe8\xe9A'
tRp4360
ag3
(g5
S'W\x13\xe9A'
tRp4361
ag3
(g5
S'\xcf\xf0\xe9A'
tRp4362
ag3
(g5
S'\x07\xae\xe8A'
tRp4363
ag3
(g5
S'\xab\xe1\xeaA'
tRp4364
ag3
(g5
S'\x0b\xee\xe8A'
tRp4365
ag3
(g5
S'l\x0c\xe8A'
tRp4366
ag3
(g5
S'\xa1\xde\xe9A'
tRp4367
ag3
(g5
S';{\xeaA'
tRp4368
ag3
(g5
S'\x91\xf9\xe9A'
tRp4369
ag3
(g5
S'G\x1d\xeaA'
tRp4370
ag3
(g5
S'&\x92\xeaA'
tRp4371
ag3
(g5
S'\x89\x0e\xeaA'
tRp4372
ag3
(g5
S'Z\x80\xe8A'
tRp4373
ag3
(g5
S'\x9ad\xeaA'
tRp4374
ag3
(g5
S'\xd3\xf0\xe9A'
tRp4375
ag3
(g5
S'\xfa\xd7\xe9A'
tRp4376
ag3
(g5
S'\xa3I\xe8A'
tRp4377
ag3
(g5
S'6\xbb\xe8A'
tRp4378
ag3
(g5
S'\x1f\xf4\xe6A'
tRp4379
ag3
(g5
S'\xbc\xca\xe7A'
tRp4380
ag3
(g5
S'\xef\x9a\xe8A'
tRp4381
ag3
(g5
S'\xc9\xd1\xe8A'
tRp4382
ag3
(g5
S'G\xf7\xe6A'
tRp4383
ag3
(g5
S'v\xc7\xe6A'
tRp4384
ag3
(g5
S'\xc9\xb4\xe7A'
tRp4385
ag3
(g5
S'\xb2+\xe8A'
tRp4386
ag3
(g5
S'\x85n\xe7A'
tRp4387
ag3
(g5
S'q"\xe7A'
tRp4388
ag3
(g5
S'\xea\xaa\xe8A'
tRp4389
ag3
(g5
S'\xdf\xb4\xe8A'
tRp4390
ag3
(g5
S'=7\xe9A'
tRp4391
ag3
(g5
S'OQ\xe7A'
tRp4392
ag3
(g5
S'\x81\x19\xe9A'
tRp4393
ag3
(g5
S'!\x89\xe7A'
tRp4394
ag3
(g5
S'a\x92\xe6A'
tRp4395
ag3
(g5
S'\xf4m\xe5A'
tRp4396
ag3
(g5
S's5\xe7A'
tRp4397
ag3
(g5
S'\x8a\r\xe7A'
tRp4398
ag3
(g5
S'\x01\xf9\xe5A'
tRp4399
ag3
(g5
S'L\r\xe6A'
tRp4400
ag3
(g5
S'\n\x1a\xe6A'
tRp4401
ag3
(g5
S',A\xe8A'
tRp4402
ag3
(g5
S'\x8b;\xe6A'
tRp4403
ag3
(g5
S'\x8b\xac\xe7A'
tRp4404
ag3
(g5
S'\xe5b\xe6A'
tRp4405
ag3
(g5
S'\xbe\x94\xe6A'
tRp4406
ag3
(g5
S'\xcb\x9a\xe5A'
tRp4407
ag3
(g5
S'=\x1c\xe6A'
tRp4408
ag3
(g5
S'\xba\xae\xe4A'
tRp4409
ag3
(g5
S'\x845\xe5A'
tRp4410
ag3
(g5
S'\xf3\xd3\xe4A'
tRp4411
ag3
(g5
S'M\xd0\xe5A'
tRp4412
ag3
(g5
S'_;\xe6A'
tRp4413
ag3
(g5
S'\xba\xb2\xe4A'
tRp4414
ag3
(g5
S'\xbe5\xe6A'
tRp4415
ag3
(g5
S'\x87\xc1\xe6A'
tRp4416
ag3
(g5
S'6l\xe5A'
tRp4417
ag3
(g5
S'd\xb2\xe5A'
tRp4418
ag3
(g5
S'_|\xe5A'
tRp4419
ag3
(g5
S'\xfc\xe1\xe5A'
tRp4420
ag3
(g5
S'\xc9\xbe\xe5A'
tRp4421
ag3
(g5
S'\xe5\xa6\xe5A'
tRp4422
ag3
(g5
S'\xcd\x04\xe6A'
tRp4423
ag3
(g5
S'\xbeH\xe5A'
tRp4424
ag3
(g5
S'\x9c\xf2\xe4A'
tRp4425
ag3
(g5
S'^E\xe5A'
tRp4426
ag3
(g5
S"'z\xe5A"
tRp4427
ag3
(g5
S'4\x93\xe4A'
tRp4428
ag3
(g5
S'\xf0^\xe4A'
tRp4429
ag3
(g5
S'\xbee\xe5A'
tRp4430
ag3
(g5
S'\xd9\xae\xe4A'
tRp4431
ag3
(g5
S'\xec\xb2\xe5A'
tRp4432
ag3
(g5
S'\xa2\x07\xe4A'
tRp4433
ag3
(g5
S'\xf4\x0f\xe5A'
tRp4434
ag3
(g5
S'5\x1d\xe5A'
tRp4435
ag3
(g5
S')R\xe5A'
tRp4436
ag3
(g5
S'\xae.\xe5A'
tRp4437
ag3
(g5
S'\xe6&\xe4A'
tRp4438
ag3
(g5
S'\xbe\xc2\xe4A'
tRp4439
ag3
(g5
S'\n-\xe4A'
tRp4440
ag3
(g5
S'\xacc\xe4A'
tRp4441
ag3
(g5
S'\x0e\xa2\xe4A'
tRp4442
ag3
(g5
S'y\xa3\xe3A'
tRp4443
ag3
(g5
S'\xa4\x7f\xe4A'
tRp4444
ag3
(g5
S'\xf4W\xe4A'
tRp4445
ag3
(g5
S'n\xdf\xe4A'
tRp4446
ag3
(g5
S'\xc3\xdb\xe2A'
tRp4447
ag3
(g5
S'\x90\xc2\xe3A'
tRp4448
ag3
(g5
S'{\xc3\xe2A'
tRp4449
ag3
(g5
S'wQ\xe5A'
tRp4450
ag3
(g5
S'\x85R\xe2A'
tRp4451
ag3
(g5
S'\x1a\x81\xe2A'
tRp4452
ag3
(g5
S'(n\xe2A'
tRp4453
ag3
(g5
S'-\x95\xe2A'
tRp4454
ag3
(g5
S'\x97\xa7\xe1A'
tRp4455
ag3
(g5
S'\xee\xda\xe2A'
tRp4456
ag3
(g5
S'\xa0\x9f\xe2A'
tRp4457
ag3
(g5
S'\xf8!\xe2A'
tRp4458
ag3
(g5
S'us\xe4A'
tRp4459
ag3
(g5
S'2\x97\xe1A'
tRp4460
ag3
(g5
S'1\xd3\xe2A'
tRp4461
ag3
(g5
S'-\x90\xe2A'
tRp4462
ag3
(g5
S'\xc7"\xe2A'
tRp4463
ag3
(g5
S'\xaf\x13\xe3A'
tRp4464
ag3
(g5
S'\x00\x00\xe3A'
tRp4465
ag3
(g5
S'j\xf1\xe1A'
tRp4466
ag3
(g5
S'\xf8l\xe3A'
tRp4467
ag3
(g5
S'\\W\xe3A'
tRp4468
ag3
(g5
S']\x92\xe3A'
tRp4469
ag3
(g5
S'\xe1Y\xe3A'
tRp4470
ag3
(g5
S')R\xe3A'
tRp4471
ag3
(g5
S'?.\xe2A'
tRp4472
ag3
(g5
S'=\xb8\xe2A'
tRp4473
ag3
(g5
S'X\xab\xe0A'
tRp4474
ag3
(g5
S'\x7f\xfc\xe1A'
tRp4475
ag3
(g5
S'\xa4o\xe2A'
tRp4476
ag3
(g5
S'b\x19\xe2A'
tRp4477
ag3
(g5
S'cP\xe1A'
tRp4478
ag3
(g5
S'\x17\xf4\xe2A'
tRp4479
ag3
(g5
S'h\xcc\xe1A'
tRp4480
ag3
(g5
S'\x90F\xe1A'
tRp4481
ag3
(g5
S'\xca\xed\xe1A'
tRp4482
ag3
(g5
S'J\x92\xe1A'
tRp4483
ag3
(g5
S')\x01\xe1A'
tRp4484
ag3
(g5
S'\xc3\xc4\xdfA'
tRp4485
ag3
(g5
S'\xfe\xef\xe0A'
tRp4486
ag3
(g5
S'\x16\x9a\xe2A'
tRp4487
ag3
(g5
S'G-\xe1A'
tRp4488
ag3
(g5
S'\xacd\xe0A'
tRp4489
ag3
(g5
S'\x06g\xe0A'
tRp4490
ag3
(g5
S'\xcb\xee\xe0A'
tRp4491
ag3
(g5
S'\xf2w\xe0A'
tRp4492
ag3
(g5
S'\xa6\xae\xdfA'
tRp4493
ag3
(g5
S'\xcdf\xe0A'
tRp4494
ag3
(g5
S'\xca\xdf\xdeA'
tRp4495
ag3
(g5
S'\xfa\x9b\xdeA'
tRp4496
ag3
(g5
S'\xcd\x07\xdfA'
tRp4497
ag3
(g5
S's}\xdfA'
tRp4498
ag3
(g5
S'B\xd6\xdeA'
tRp4499
ag3
(g5
S'\x7fO\xe0A'
tRp4500
ag3
(g5
S'9\xe4\xe0A'
tRp4501
ag3
(g5
S'\xaa\xac\xdeA'
tRp4502
ag3
(g5
S'\x8d\x16\xdfA'
tRp4503
ag3
(g5
S'\x98e\xe0A'
tRp4504
ag3
(g5
S'\xa4\xaf\xe0A'
tRp4505
ag3
(g5
S'9\xad\xdfA'
tRp4506
ag3
(g5
S'7t\xdfA'
tRp4507
ag3
(g5
S'\x0ey\xe0A'
tRp4508
ag3
(g5
S'\xf6\xd4\xe0A'
tRp4509
ag3
(g5
S'\r\xb4\xe0A'
tRp4510
ag3
(g5
S'\x1b=\xe0A'
tRp4511
ag3
(g5
S'\x9f\xe1\xdfA'
tRp4512
ag3
(g5
S'\x7f7\xe0A'
tRp4513
ag3
(g5
S'+\x91\xe0A'
tRp4514
ag3
(g5
S'J\xf9\xe0A'
tRp4515
ag3
(g5
S'J\x10\xdfA'
tRp4516
ag3
(g5
S'/\xa5\xdfA'
tRp4517
ag3
(g5
S'\x8e\xad\xdeA'
tRp4518
ag3
(g5
S'4\xed\xdfA'
tRp4519
ag3
(g5
S'nR\xe0A'
tRp4520
ag3
(g5
S'\xb48\xdfA'
tRp4521
ag3
(g5
S'\xe7!\xdfA'
tRp4522
ag3
(g5
S'j)\xdfA'
tRp4523
ag3
(g5
S'\x0e\x81\xdfA'
tRp4524
ag3
(g5
S'\x83\xd1\xdeA'
tRp4525
ag3
(g5
S'\xa9\xb0\xe0A'
tRp4526
ag3
(g5
S'\x04M\xdfA'
tRp4527
ag3
(g5
S'\xb4\x19\xdfA'
tRp4528
ag3
(g5
S'\xac\xac\xdeA'
tRp4529
ag3
(g5
S'\x89\xee\xdeA'
tRp4530
ag3
(g5
S'%\xd0\xdfA'
tRp4531
ag3
(g5
S'\x9a\xae\xe0A'
tRp4532
ag3
(g5
S'\xec\x14\xdfA'
tRp4533
ag3
(g5
S'\x81\xa5\xdfA'
tRp4534
ag3
(g5
S'\xaf\xb3\xdfA'
tRp4535
ag3
(g5
S'\xcdw\xdeA'
tRp4536
ag3
(g5
S'\x87\xce\xdeA'
tRp4537
ag3
(g5
S'\x12w\xddA'
tRp4538
ag3
(g5
S'\x89\x89\xddA'
tRp4539
ag3
(g5
S'\xef\xa8\xddA'
tRp4540
ag3
(g5
S'?;\xddA'
tRp4541
ag3
(g5
S'\x98;\xdeA'
tRp4542
ag3
(g5
S'Z\x96\xdeA'
tRp4543
ag3
(g5
S'\xc9\x93\xdcA'
tRp4544
ag3
(g5
S'\xf4\xd4\xddA'
tRp4545
ag3
(g5
S'\x85:\xddA'
tRp4546
ag3
(g5
S'\xf1\x03\xdcA'
tRp4547
ag3
(g5
S'\x80W\xdcA'
tRp4548
ag3
(g5
S'\xea\xba\xdcA'
tRp4549
ag3
(g5
S'\xab\xdb\xdbA'
tRp4550
ag3
(g5
S'\xb6\xd2\xdaA'
tRp4551
ag3
(g5
S'\x0cs\xdbA'
tRp4552
ag3
(g5
S'\x1d\x08\xdcA'
tRp4553
ag3
(g5
S'\\}\xdbA'
tRp4554
ag3
(g5
S'\x06Z\xdbA'
tRp4555
ag3
(g5
S'\xa6\xe1\xdaA'
tRp4556
ag3
(g5
S'\xafP\xdbA'
tRp4557
ag3
(g5
S'\x05\x14\xdbA'
tRp4558
ag3
(g5
S'X\x1b\xdcA'
tRp4559
ag3
(g5
S'\x077\xdbA'
tRp4560
ag3
(g5
S'!&\xdbA'
tRp4561
ag3
(g5
S'\xd9\xcd\xdaA'
tRp4562
ag3
(g5
S'\xcd\x99\xd9A'
tRp4563
ag3
(g5
S'\x8a\xc5\xdaA'
tRp4564
ag3
(g5
S'\xec\xc8\xdcA'
tRp4565
ag3
(g5
S'\x1d\x1f\xdbA'
tRp4566
ag3
(g5
S'\xd7\xbb\xdbA'
tRp4567
ag3
(g5
S'\xd5!\xdaA'
tRp4568
ag3
(g5
S'H0\xd9A'
tRp4569
ag3
(g5
S'\x91i\xd9A'
tRp4570
ag3
(g5
S'\xb1G\xdaA'
tRp4571
ag3
(g5
S'\xb5\x96\xd9A'
tRp4572
ag3
(g5
S'\x91(\xd9A'
tRp4573
ag3
(g5
S'\xf8\xbf\xd7A'
tRp4574
ag3
(g5
S'\xa8\xa6\xd7A'
tRp4575
ag3
(g5
S'\xec\xeb\xd9A'
tRp4576
ag3
(g5
S'\x8b\xf9\xd8A'
tRp4577
ag3
(g5
S'\x19j\xd8A'
tRp4578
ag3
(g5
S'\xa6\xa1\xd7A'
tRp4579
ag3
(g5
S'G7\xd7A'
tRp4580
ag3
(g5
S'm\x15\xd7A'
tRp4581
ag3
(g5
S'\x96\xc6\xd6A'
tRp4582
ag3
(g5
S'\xe0U\xdaA'
tRp4583
ag3
(g5
S'\xf6\xf4\xd6A'
tRp4584
ag3
(g5
S'\xc7\xcd\xd6A'
tRp4585
ag3
(g5
S'\xad\x81\xd7A'
tRp4586
ag3
(g5
S'\x12\x9f\xd7A'
tRp4587
ag3
(g5
S'\xe4a\xd6A'
tRp4588
ag3
(g5
S'\xc1)\xd7A'
tRp4589
ag3
(g5
S'\xb5\x00\xd7A'
tRp4590
ag3
(g5
S'\x1a\x97\xd6A'
tRp4591
ag3
(g5
S'fJ\xd7A'
tRp4592
ag3
(g5
S'\xba\xcf\xd5A'
tRp4593
ag3
(g5
S'\xc8\x9c\xd6A'
tRp4594
ag3
(g5
S'\xcb\xa4\xd4A'
tRp4595
ag3
(g5
S'\x10\xad\xd6A'
tRp4596
ag3
(g5
S'\xac\xbe\xd5A'
tRp4597
ag3
(g5
S'#t\xd5A'
tRp4598
ag3
(g5
S'+\xeb\xd4A'
tRp4599
ag3
(g5
S'\xdd\xc1\xd6A'
tRp4600
ag3
(g5
S'!\x90\xd6A'
tRp4601
ag3
(g5
S'\\1\xd7A'
tRp4602
ag3
(g5
S'\x08\xd5\xd5A'
tRp4603
ag3
(g5
S'\x83l\xd6A'
tRp4604
ag3
(g5
S'\xdbv\xd6A'
tRp4605
ag3
(g5
S'\xecV\xd6A'
tRp4606
ag3
(g5
S'=\xe2\xd5A'
tRp4607
ag3
(g5
S'\xe5\n\xd5A'
tRp4608
ag3
(g5
S'\xe5n\xd5A'
tRp4609
ag3
(g5
S'\x07\x11\xd5A'
tRp4610
ag3
(g5
S'\x10\x1c\xd6A'
tRp4611
ag3
(g5
S'F\x90\xd5A'
tRp4612
ag3
(g5
S'Z\x13\xd5A'
tRp4613
ag3
(g5
S'\xb8\xc0\xd4A'
tRp4614
ag3
(g5
S'\x1a\xcd\xd4A'
tRp4615
ag3
(g5
S'\x14\x89\xd4A'
tRp4616
ag3
(g5
S'\x9a\xe6\xd4A'
tRp4617
ag3
(g5
S'\xb8?\xd4A'
tRp4618
ag3
(g5
S'\xb4X\xd4A'
tRp4619
ag3
(g5
S'\xb4\xdf\xd4A'
tRp4620
ag3
(g5
S'\xfa\xa2\xd4A'
tRp4621
ag3
(g5
S'\x0cs\xd4A'
tRp4622
ag3
(g5
S's\xc9\xd3A'
tRp4623
ag3
(g5
S'1\xe4\xd3A'
tRp4624
ag3
(g5
S'\x9a\xed\xd3A'
tRp4625
ag3
(g5
S'\xaea\xd5A'
tRp4626
ag3
(g5
S'\xd8\x9e\xd2A'
tRp4627
ag3
(g5
S'hB\xd5A'
tRp4628
ag3
(g5
S'Q\xec\xd4A'
tRp4629
ag3
(g5
S'\xc1\x06\xd5A'
tRp4630
ag3
(g5
S'\x90\xe4\xd4A'
tRp4631
ag3
(g5
S'\xf4\xdc\xd4A'
tRp4632
ag3
(g5
S'\xf2?\xd5A'
tRp4633
ag3
(g5
S'q\x9e\xd5A'
tRp4634
ag3
(g5
S'\x87\xf8\xd4A'
tRp4635
ag3
(g5
S'\x91\x8f\xd4A'
tRp4636
ag3
(g5
S'\x03\xb9\xd4A'
tRp4637
ag3
(g5
S';\xb8\xd5A'
tRp4638
ag3
(g5
S'=T\xd7A'
tRp4639
ag3
(g5
S'\x83\xaf\xd5A'
tRp4640
ag3
(g5
S'\xd2\xa1\xd6A'
tRp4641
ag3
(g5
S'n\xc2\xd5A'
tRp4642
ag3
(g5
S'\xcf\xeb\xd4A'
tRp4643
ag3
(g5
S'\x87\x9a\xd6A'
tRp4644
ag3
(g5
S'\xc2\xa1\xd6A'
tRp4645
ag3
(g5
S"'\xd8\xd3A"
tRp4646
ag3
(g5
S'\x1d\x93\xd5A'
tRp4647
ag3
(g5
S'\xd1\xec\xd4A'
tRp4648
ag3
(g5
S'\xa82\xd6A'
tRp4649
ag3
(g5
S'"t\xd6A'
tRp4650
ag3
(g5
S'\x7f\xaf\xd4A'
tRp4651
ag3
(g5
S'\x93\xfc\xd4A'
tRp4652
ag3
(g5
S'\x8dD\xd5A'
tRp4653
ag3
(g5
S'\xa1\xf9\xd4A'
tRp4654
ag3
(g5
S'\x0c\xae\xd3A'
tRp4655
ag3
(g5
S'\x9cu\xd4A'
tRp4656
ag3
(g5
S'T\x10\xd4A'
tRp4657
ag3
(g5
S'bN\xd4A'
tRp4658
ag3
(g5
S'\xa4v\xd4A'
tRp4659
ag3
(g5
S'\xffH\xd4A'
tRp4660
ag3
(g5
S'\x8b\x1c\xd4A'
tRp4661
ag3
(g5
S'\xa9\xa1\xd5A'
tRp4662
ag3
(g5
S'\x04]\xd3A'
tRp4663
ag3
(g5
S'\xdb,\xd4A'
tRp4664
ag3
(g5
S'\xa3\xd2\xd2A'
tRp4665
ag3
(g5
S'8}\xd2A'
tRp4666
ag3
(g5
S'3\x1c\xd3A'
tRp4667
ag3
(g5
S'm\\\xd2A'
tRp4668
ag3
(g5
S'G\xd4\xd2A'
tRp4669
ag3
(g5
S'\x1e^\xd3A'
tRp4670
ag3
(g5
S'Jt\xd3A'
tRp4671
ag3
(g5
S'\x81\xf2\xd2A'
tRp4672
ag3
(g5
S'\x070\xd2A'
tRp4673
ag3
(g5
S'\x16\x1f\xd2A'
tRp4674
ag3
(g5
S'i\xee\xd2A'
tRp4675
ag3
(g5
S'\xe7+\xd3A'
tRp4676
ag3
(g5
S'\xae\x17\xd2A'
tRp4677
ag3
(g5
S'\xc5X\xd3A'
tRp4678
ag3
(g5
S'\xba\x92\xd2A'
tRp4679
ag3
(g5
S'^m\xd2A'
tRp4680
ag3
(g5
S'\x9b:\xd2A'
tRp4681
ag3
(g5
S'\xbb\x06\xd3A'
tRp4682
ag3
(g5
S'\xc5\xf5\xd1A'
tRp4683
ag3
(g5
S'%\x8f\xd1A'
tRp4684
ag3
(g5
S'R7\xd2A'
tRp4685
ag3
(g5
S'\xe01\xd1A'
tRp4686
ag3
(g5
S';\x9e\xd3A'
tRp4687
ag3
(g5
S'\xfa\x8a\xd1A'
tRp4688
ag3
(g5
S'\xa8\x92\xd2A'
tRp4689
ag3
(g5
S'\x93\x88\xd3A'
tRp4690
ag3
(g5
S'-\xb1\xd3A'
tRp4691
ag3
(g5
S';V\xd3A'
tRp4692
ag3
(g5
S'\x9a\xd3\xd1A'
tRp4693
ag3
(g5
S'\x0e\xed\xd3A'
tRp4694
ag3
(g5
S'Z\x1e\xd3A'
tRp4695
ag3
(g5
S'yV\xd2A'
tRp4696
ag3
(g5
S'G$\xd3A'
tRp4697
ag3
(g5
S'\xf2\xba\xd1A'
tRp4698
ag3
(g5
S'\xbe\xb7\xd2A'
tRp4699
ag3
(g5
S'9\xb3\xd2A'
tRp4700
ag3
(g5
S'\xadS\xd3A'
tRp4701
ag3
(g5
S'&|\xd2A'
tRp4702
ag3
(g5
S'<\xe5\xd3A'
tRp4703
ag3
(g5
S'z\xd9\xd0A'
tRp4704
ag3
(g5
S'\xcc\xe4\xd1A'
tRp4705
ag3
(g5
S'\x8f\xc5\xd2A'
tRp4706
ag3
(g5
S'K\t\xd1A'
tRp4707
ag3
(g5
S'X\xd9\xd2A'
tRp4708
ag3
(g5
S'\xc9\x8b\xd1A'
tRp4709
ag3
(g5
S').\xd1A'
tRp4710
ag3
(g5
S'h^\xd2A'
tRp4711
ag3
(g5
S'\xf1\xe2\xd2A'
tRp4712
ag3
(g5
S'\xfe~\xd2A'
tRp4713
ag3
(g5
S'\xc7\xbc\xd2A'
tRp4714
ag3
(g5
S'p\r\xd3A'
tRp4715
ag3
(g5
S'\x83\xf9\xd1A'
tRp4716
ag3
(g5
S'\xe2o\xd3A'
tRp4717
ag3
(g5
S'`\x12\xd2A'
tRp4718
ag3
(g5
S'\xa61\xd3A'
tRp4719
ag3
(g5
S'\xac"\xd2A'
tRp4720
ag3
(g5
S'\xc7\x05\xd2A'
tRp4721
ag3
(g5
S'\xe5\xc0\xd3A'
tRp4722
ag3
(g5
S'/\x08\xd4A'
tRp4723
ag3
(g5
S'%+\xd4A'
tRp4724
ag3
(g5
S'\x9aT\xd5A'
tRp4725
ag3
(g5
S'\x93\xb4\xd3A'
tRp4726
ag3
(g5
S'\xcc\xf7\xd2A'
tRp4727
ag3
(g5
S'd~\xd2A'
tRp4728
ag3
(g5
S'+K\xd1A'
tRp4729
ag3
(g5
S'\x0fR\xd2A'
tRp4730
ag3
(g5
S'\xfe\xb9\xd4A'
tRp4731
ag3
(g5
S'\x0c\x1d\xd3A'
tRp4732
ag3
(g5
S'\xcb\xba\xd3A'
tRp4733
ag3
(g5
S'+\xff\xd0A'
tRp4734
ag3
(g5
S'!4\xd2A'
tRp4735
ag3
(g5
S'3\xbb\xd0A'
tRp4736
ag3
(g5
S'\x9aH\xd1A'
tRp4737
ag3
(g5
S'\x88\xba\xd0A'
tRp4738
ag3
(g5
S'#\xc4\xcfA'
tRp4739
ag3
(g5
S'\xa2\x8d\xd1A'
tRp4740
ag3
(g5
S'\xb08\xd0A'
tRp4741
ag3
(g5
S'qn\xd2A'
tRp4742
ag3
(g5
S'-e\xd1A'
tRp4743
ag3
(g5
S'\xd7\xe0\xcfA'
tRp4744
ag3
(g5
S'\x8b%\xcfA'
tRp4745
ag3
(g5
S'^\x1f\xcfA'
tRp4746
ag3
(g5
S'\x0e\xf1\xcdA'
tRp4747
ag3
(g5
S'\xa6\xb2\xcfA'
tRp4748
ag3
(g5
S'\xa5\xc0\xceA'
tRp4749
ag3
(g5
S'\x13\x95\xcfA'
tRp4750
ag3
(g5
S'\x9eU\xceA'
tRp4751
ag3
(g5
S'\x06m\xcfA'
tRp4752
ag3
(g5
S'\r\x03\xcfA'
tRp4753
ag3
(g5
S'\xbb\xa2\xcdA'
tRp4754
ag3
(g5
S'j\x88\xceA'
tRp4755
ag3
(g5
S'\x18A\xceA'
tRp4756
ag3
(g5
S'9\x1e\xceA'
tRp4757
ag3
(g5
S'\xd0\xb6\xcdA'
tRp4758
ag3
(g5
S'\xf6\xdb\xceA'
tRp4759
ag3
(g5
S'\xfa\xd1\xceA'
tRp4760
ag3
(g5
S'"\x0b\xceA'
tRp4761
ag3
(g5
S'7\xd0\xceA'
tRp4762
ag3
(g5
S'\xfa\xe2\xceA'
tRp4763
ag3
(g5
S'\xa2I\xcdA'
tRp4764
ag3
(g5
S'5\xd5\xccA'
tRp4765
ag3
(g5
S'\xc2\x91\xccA'
tRp4766
ag3
(g5
S'\xae\xd4\xccA'
tRp4767
ag3
(g5
S'\xbc\xfc\xccA'
tRp4768
ag3
(g5
S'\x9d\xa3\xcbA'
tRp4769
ag3
(g5
S'\xafY\xceA'
tRp4770
ag3
(g5
S'{8\xcdA'
tRp4771
ag3
(g5
S'\xe2\xcc\xccA'
tRp4772
ag3
(g5
S'\xcf\xaf\xccA'
tRp4773
ag3
(g5
S'9g\xcdA'
tRp4774
ag3
(g5
S')\x12\xcdA'
tRp4775
ag3
(g5
S'u&\xccA'
tRp4776
ag3
(g5
S'\xc16\xceA'
tRp4777
ag3
(g5
S')\x88\xceA'
tRp4778
ag3
(g5
S'G\xa2\xcbA'
tRp4779
ag3
(g5
S'[\xc8\xcdA'
tRp4780
ag3
(g5
S'\xaa\x84\xccA'
tRp4781
ag3
(g5
S'\x1d:\xccA'
tRp4782
ag3
(g5
S'^\xd3\xcdA'
tRp4783
ag3
(g5
S'\x7f\xa5\xceA'
tRp4784
ag3
(g5
S'\x9dy\xccA'
tRp4785
ag3
(g5
S'\xdd,\xceA'
tRp4786
ag3
(g5
S'\ny\xcdA'
tRp4787
ag3
(g5
S'\xd4\xde\xccA'
tRp4788
ag3
(g5
S'\xca\x18\xcfA'
tRp4789
ag3
(g5
S'\xa3)\xceA'
tRp4790
ag3
(g5
S'4\xc7\xccA'
tRp4791
ag3
(g5
S'\x85\xb6\xccA'
tRp4792
ag3
(g5
S'\x1b\xac\xccA'
tRp4793
ag3
(g5
S'\\o\xcdA'
tRp4794
ag3
(g5
S'\xee\xb4\xcdA'
tRp4795
ag3
(g5
S'\xa3\x8a\xccA'
tRp4796
ag3
(g5
S'\x16\xe0\xcdA'
tRp4797
ag3
(g5
S'\x00\x0c\xccA'
tRp4798
ag3
(g5
S'\xc13\xcdA'
tRp4799
ag3
(g5
S'{\xfc\xccA'
tRp4800
ag3
(g5
S';[\xcdA'
tRp4801
ag3
(g5
S'\xbeX\xcdA'
tRp4802
ag3
(g5
S'\x85\xbb\xccA'
tRp4803
ag3
(g5
S',\xd6\xcbA'
tRp4804
ag3
(g5
S'\x13:\xccA'
tRp4805
ag3
(g5
S'\x8d\xdc\xcbA'
tRp4806
ag3
(g5
S'A\xec\xcbA'
tRp4807
ag3
(g5
S'\xd7\x98\xcbA'
tRp4808
ag3
(g5
S'\xc5\x99\xcbA'
tRp4809
ag3
(g5
S'\x06\xe9\xcaA'
tRp4810
ag3
(g5
S'\xfe5\xccA'
tRp4811
ag3
(g5
S'^\x15\xcbA'
tRp4812
ag3
(g5
S'v9\xcbA'
tRp4813
ag3
(g5
S'\x04b\xcaA'
tRp4814
ag3
(g5
S'\xaa\x04\xccA'
tRp4815
ag3
(g5
S'\x91\xa2\xcaA'
tRp4816
ag3
(g5
S'\xd87\xcaA'
tRp4817
ag3
(g5
S'\x8bi\xcbA'
tRp4818
ag3
(g5
S'\x91^\xcbA'
tRp4819
ag3
(g5
S'"\xfc\xcaA'
tRp4820
ag3
(g5
S'\x84:\xcaA'
tRp4821
ag3
(g5
S'4\x8d\xcaA'
tRp4822
ag3
(g5
S'\x9a\x97\xcaA'
tRp4823
ag3
(g5
S'\xa3t\xcaA'
tRp4824
ag3
(g5
S'\xdf\xc6\xc9A'
tRp4825
ag3
(g5
S')M\xcaA'
tRp4826
ag3
(g5
S'\x98k\xc9A'
tRp4827
ag3
(g5
S'T\xef\xc9A'
tRp4828
ag3
(g5
S'N\x0f\xc8A'
tRp4829
ag3
(g5
S'\xcf\xad\xc8A'
tRp4830
ag3
(g5
S'Y\xaa\xc9A'
tRp4831
ag3
(g5
S'\x9dn\xc9A'
tRp4832
ag3
(g5
S'PE\xc8A'
tRp4833
ag3
(g5
S'F\xc0\xc8A'
tRp4834
ag3
(g5
S'\x175\xc8A'
tRp4835
ag3
(g5
S'wh\xc6A'
tRp4836
ag3
(g5
S'\x11s\xc8A'
tRp4837
ag3
(g5
S'\x0bc\xc8A'
tRp4838
ag3
(g5
S';\xb9\xc8A'
tRp4839
ag3
(g5
S'\xfd\xa0\xc7A'
tRp4840
ag3
(g5
S'!\xcd\xc7A'
tRp4841
ag3
(g5
S'\xca\xaf\xc8A'
tRp4842
ag3
(g5
S'\x94\xd6\xc9A'
tRp4843
ag3
(g5
S"\xc3'\xc8A"
tRp4844
ag3
(g5
S'\x17\xc7\xc7A'
tRp4845
ag3
(g5
S'\xfaX\xc8A'
tRp4846
ag3
(g5
S'\x8b\xfe\xc6A'
tRp4847
ag3
(g5
S'\xb5\x0e\xc8A'
tRp4848
ag3
(g5
S';\x9c\xc7A'
tRp4849
ag3
(g5
S'CG\xc7A'
tRp4850
ag3
(g5
S'\xda\xfa\xc7A'
tRp4851
ag3
(g5
S'7\xdd\xc6A'
tRp4852
ag3
(g5
S'\xba%\xc7A'
tRp4853
ag3
(g5
S'\x0c\x16\xc7A'
tRp4854
ag3
(g5
S'?\x9a\xc5A'
tRp4855
ag3
(g5
S'9\x00\xc7A'
tRp4856
ag3
(g5
S'}{\xc8A'
tRp4857
ag3
(g5
S'#\t\xc5A'
tRp4858
ag3
(g5
S'H\x96\xc6A'
tRp4859
ag3
(g5
S'u\x1a\xc8A'
tRp4860
ag3
(g5
S'GS\xc7A'
tRp4861
ag3
(g5
S'\xf0\xe7\xc6A'
tRp4862
ag3
(g5
S'\x9a\xcf\xc5A'
tRp4863
ag3
(g5
S' y\xc5A'
tRp4864
ag3
(g5
S'{\xda\xc5A'
tRp4865
ag3
(g5
S')\xe8\xc6A'
tRp4866
ag3
(g5
S'\x1c\xa9\xc6A'
tRp4867
ag3
(g5
S'\xc1j\xc5A'
tRp4868
ag3
(g5
S'\xa7\xfa\xc5A'
tRp4869
ag3
(g5
S'\x9e\xfe\xc4A'
tRp4870
ag3
(g5
S'\xa2\xde\xc5A'
tRp4871
ag3
(g5
S';\x81\xc5A'
tRp4872
ag3
(g5
S'\x92\x9b\xc5A'
tRp4873
ag3
(g5
S'\xabX\xc5A'
tRp4874
ag3
(g5
S'd5\xc4A'
tRp4875
ag3
(g5
S'\xfd8\xc4A'
tRp4876
ag3
(g5
S'\x1dp\xc3A'
tRp4877
ag3
(g5
S'\xbb\xfc\xc3A'
tRp4878
ag3
(g5
S'\x98\xed\xc4A'
tRp4879
ag3
(g5
S'\xbc\x1f\xc4A'
tRp4880
ag3
(g5
S'\xff\xf8\xc3A'
tRp4881
ag3
(g5
S'\x98\xae\xc3A'
tRp4882
ag3
(g5
S'\x88C\xc4A'
tRp4883
ag3
(g5
S'\x0fv\xc4A'
tRp4884
ag3
(g5
S'R\x1c\xc4A'
tRp4885
ag3
(g5
S'\x0cK\xc3A'
tRp4886
ag3
(g5
S'\x9c\xdf\xc2A'
tRp4887
ag3
(g5
S'Y\xe0\xc2A'
tRp4888
ag3
(g5
S'~\x16\xc4A'
tRp4889
ag3
(g5
S'\x99Z\xc3A'
tRp4890
ag3
(g5
S'\xb0\xb4\xc3A'
tRp4891
ag3
(g5
S'\xf05\xc2A'
tRp4892
ag3
(g5
S'\x04\x95\xc3A'
tRp4893
ag3
(g5
S'\xf65\xc3A'
tRp4894
ag3
(g5
S'\xc2?\xc3A'
tRp4895
ag3
(g5
S'Y\xd6\xc1A'
tRp4896
ag3
(g5
S'V \xc2A'
tRp4897
ag3
(g5
S'5\x03\xc3A'
tRp4898
ag3
(g5
S'\x04\xe8\xc1A'
tRp4899
ag3
(g5
S'\x0c/\xc2A'
tRp4900
ag3
(g5
S'\x85\x92\xc3A'
tRp4901
ag3
(g5
S'\x14\\\xc2A'
tRp4902
ag3
(g5
S'\xf1B\xc3A'
tRp4903
ag3
(g5
S'H\xa9\xc2A'
tRp4904
ag3
(g5
S'g\xe0\xc2A'
tRp4905
ag3
(g5
S'\xacC\xc3A'
tRp4906
ag3
(g5
S'\x83z\xc3A'
tRp4907
ag3
(g5
S'\xd96\xc2A'
tRp4908
ag3
(g5
S'=x\xc1A'
tRp4909
ag3
(g5
S'\xa8o\xc2A'
tRp4910
ag3
(g5
S'\x1a\x9f\xc2A'
tRp4911
ag3
(g5
S'\xa2&\xc2A'
tRp4912
ag3
(g5
S'_\xda\xc2A'
tRp4913
ag3
(g5
S'\x10\xe3\xc2A'
tRp4914
ag3
(g5
S'\xda\\\xc1A'
tRp4915
ag3
(g5
S'\x83\x89\xc1A'
tRp4916
ag3
(g5
S'\xcb\x89\xc1A'
tRp4917
ag3
(g5
S'\xf2\x83\xc3A'
tRp4918
ag3
(g5
S'\r\x9e\xc2A'
tRp4919
ag3
(g5
S'\xcb!\xc3A'
tRp4920
ag3
(g5
S'\xf6\xaf\xc3A'
tRp4921
ag3
(g5
S'P\xbc\xc3A'
tRp4922
ag3
(g5
S'\x1c\xd2\xc2A'
tRp4923
ag3
(g5
S'\xa9\x0b\xc4A'
tRp4924
ag3
(g5
S'\x00Z\xc3A'
tRp4925
ag3
(g5
S'\x11:\xc2A'
tRp4926
ag3
(g5
S'o^\xc3A'
tRp4927
ag3
(g5
S'q\x03\xc2A'
tRp4928
ag3
(g5
S'#\xc4\xc2A'
tRp4929
ag3
(g5
S'e@\xc3A'
tRp4930
ag3
(g5
S'\xa4\xd5\xc0A'
tRp4931
ag3
(g5
S'!\xb6\xc0A'
tRp4932
ag3
(g5
S'\xd1\xb9\xc1A'
tRp4933
ag3
(g5
S'\x8bC\xc1A'
tRp4934
ag3
(g5
S'dC\xc1A'
tRp4935
ag3
(g5
S'\x1c\x84\xc2A'
tRp4936
ag3
(g5
S'\x062\xc2A'
tRp4937
ag3
(g5
S'\xad\xa8\xc0A'
tRp4938
ag3
(g5
S'}\xfe\xc0A'
tRp4939
ag3
(g5
S').\xc2A'
tRp4940
ag3
(g5
S'\xb6\x1c\xc1A'
tRp4941
ag3
(g5
S'\x1d\x1e\xc2A'
tRp4942
ag3
(g5
S'O\xa9\xc1A'
tRp4943
ag3
(g5
S'\xe4\xe6\xc0A'
tRp4944
ag3
(g5
S'\x04\xe0\xc1A'
tRp4945
ag3
(g5
S'\x8b]\xc1A'
tRp4946
ag3
(g5
S'\x05;\xc1A'
tRp4947
ag3
(g5
S'w\x00\xc2A'
tRp4948
ag3
(g5
S'w\\\xc1A'
tRp4949
ag3
(g5
S'g,\xc2A'
tRp4950
ag3
(g5
S'\xc9\xe9\xc1A'
tRp4951
ag3
(g5
S'Pf\xc1A'
tRp4952
ag3
(g5
S'\x10\x9b\xc0A'
tRp4953
ag3
(g5
S'z\xd7\xc0A'
tRp4954
ag3
(g5
S'\xe0\xf8\xc1A'
tRp4955
ag3
(g5
S'%k\xc0A'
tRp4956
ag3
(g5
S'\xa2/\xc0A'
tRp4957
ag3
(g5
S'`\x91\xc0A'
tRp4958
ag3
(g5
S'\xd3w\xc1A'
tRp4959
ag3
(g5
S'\x1cM\xc1A'
tRp4960
ag3
(g5
S'BB\xc2A'
tRp4961
ag3
(g5
S"'\xe2\xc0A"
tRp4962
ag3
(g5
S'\x19r\xc0A'
tRp4963
ag3
(g5
S'\xa6P\xc1A'
tRp4964
ag3
(g5
S'\xc3\xc6\xc0A'
tRp4965
ag3
(g5
S'>r\xbeA'
tRp4966
ag3
(g5
S'\x8d\xee\xbeA'
tRp4967
ag3
(g5
S'\x0b\x99\xc0A'
tRp4968
ag3
(g5
S'\x9af\xbeA'
tRp4969
ag3
(g5
S'\xa5\x0c\xbfA'
tRp4970
ag3
(g5
S'\xd3\xa4\xbeA'
tRp4971
ag3
(g5
S'\xec1\xbfA'
tRp4972
ag3
(g5
S'\xa2\x01\xc0A'
tRp4973
ag3
(g5
S'+m\xbfA'
tRp4974
ag3
(g5
S'\xe0\x8b\xbfA'
tRp4975
ag3
(g5
S';\xe7\xc0A'
tRp4976
ag3
(g5
S'\x7fZ\xbfA'
tRp4977
ag3
(g5
S'^\x99\xc0A'
tRp4978
ag3
(g5
S'\x00o\xc0A'
tRp4979
ag3
(g5
S"'\xac\xc0A"
tRp4980
ag3
(g5
S'\xe9+\xc0A'
tRp4981
ag3
(g5
S'\x9a\x01\xc0A'
tRp4982
ag3
(g5
S'\xe3P\xc0A'
tRp4983
ag3
(g5
S'\xe2\x9e\xbfA'
tRp4984
ag3
(g5
S';\x83\xbfA'
tRp4985
ag3
(g5
S'\x8c\xaf\xc1A'
tRp4986
ag3
(g5
S'%\xed\xbeA'
tRp4987
ag3
(g5
S';\xfb\xbfA'
tRp4988
ag3
(g5
S'b\xc4\xc0A'
tRp4989
ag3
(g5
S'\tA\xbeA'
tRp4990
ag3
(g5
S'j\xb1\xbfA'
tRp4991
ag3
(g5
S'\xa0\xd1\xbfA'
tRp4992
ag3
(g5
S'N\xe3\xbfA'
tRp4993
ag3
(g5
S'i\xed\xbfA'
tRp4994
ag3
(g5
S'\xb9\x91\xbfA'
tRp4995
ag3
(g5
S'\x12\xee\xbeA'
tRp4996
ag3
(g5
S'2\xc4\xbeA'
tRp4997
ag3
(g5
S'\x89u\xbeA'
tRp4998
ag3
(g5
S'n\xe9\xbfA'
tRp4999
ag3
(g5
S'\x004\xc0A'
tRp5000
ag3
(g5
S'\xc1\x1a\xbfA'
tRp5001
ag3
(g5
S'\x12@\xc1A'
tRp5002
ag3
(g5
S'\xac\xd2\xbeA'
tRp5003
ag3
(g5
S'\x1b\xdc\xbeA'
tRp5004
ag3
(g5
S'\xe3?\xc0A'
tRp5005
ag3
(g5
S'\x19\xe2\xbdA'
tRp5006
ag3
(g5
S't\xd7\xbfA'
tRp5007
ag3
(g5
S'\xab0\xbfA'
tRp5008
ag3
(g5
S'\x17\x9a\xc0A'
tRp5009
aa.