(lp1
S'Hola, soy cient\xc3\xadfico de datos en apple y trabajo en proyectos de aprendizaje profundo.'
p2
aS'Tambi\xc3\xa9n mantengo un blog en mi tiempo libre con muchos de mis antiguos tutoriales.'
p3
aS'Mis intereses personales de investigaci\xc3\xb3n incluyen tareas de procesamiento de secuencia a secuencia.'
p4
aS'Este es un subcampo bastante amplio y est\xc3\xa1 creciendo cada vez m\xc3\xa1s.'
p5
aS'Finalmente, quiero resolver la capacidad de razonar con la l\xc3\xb3gica para que podamos construir plataformas que puedan comenzar a tomar decisiones estrat\xc3\xa9gicas en una amplia gama de situaciones.'
p6
aS'Tambi\xc3\xa9n me gusta jugar tenis, cocina, levantamiento de pesas.'
p7
aS'Mis programas favoritos incluyen la teor\xc3\xada del Big Bang, la familia moderna, Shark Tank y Dragon Ball.'
p8
aS'Soy originalmente de New Jersey pero vivo actualmente en California mientras que mis padres viven en Georgia.'
p9
aS'Tengo un hermano peque\xc3\xb1o que est\xc3\xa1 en la escuela secundaria y es algo desafortunado que no pueda estar a su lado cuando \xc3\xa9l es High School secundaria.'
p10
aS'Que es sin duda algunos tiempos probados en la vida de un adolescente.'
p11
aS'Espero que esto sea suficiente frases para un poco de precisi\xc3\xb3n traduccional.'
p12
aS'S\xc3\xb3lo el tiempo dir\xc3\xa1 y un modelo decente ayudar\xc3\xa1 tambi\xc3\xa9n.'
p13
aS'Me gusta comer s\xc3\xa1ndwiches de mantequilla de man\xc3\xad, huevos y batidos de manzana en la ma\xc3\xb1ana\nPara el almuerzo suelo comer una ensalada muy grande o pollo y arroz.'
p14
aS'Para la cena trato de comer pescado silvestre con verduras.'
p15
aS'Por la noche, por lo general, comer helado y tal vez una manzana.'
p16
aS'En los fines de semana, podr\xc3\xada cocinar pasta con salm\xc3\xb3n o comer fuera con amigos.'
p17
aS'Tambi\xc3\xa9n no tomo nada artificial como los suplementos de prote\xc3\xadnas y tratar de comer alimentos org\xc3\xa1nicos.'
p18
aS'De hecho ni siquiera poseen un microondas que puede ser inconveniente cuando quiero calentar mis comidas org\xc3\xa1nicas.'
p19
aS'Pas\xc3\xa9 bastante tiempo trabajando con redes adversarias, pero ahora estoy m\xc3\xa1s centrado en resolver el razonamiento l\xc3\xb3gico para la inteligencia artificial.'
p20
aS'Tenemos un largo camino por recorrer, pero creo que podemos lograr haza\xc3\xb1as incre\xc3\xadbles en la pr\xc3\xb3xima d\xc3\xa9cada.'
p21
a.